(lp0
S'fine'
p1
aS'jaylen'
p2
aS'kaitlyn'
p3
aS'logan'
p4
aS'female'
p5
aS'male'
p6
aS'i don t work out yet hahah'
p7
aS''
p8
aS'yes'
p9
aS'female'
p10
aS'jessica'
p11
aS'haha'
p12
ag8
ag8
aS'hi indi my name is eve'
p13
aS'yes please'
p14
aS'foot inch'
p15
aS'k'
p16
ag8
aS'mike'
p17
aS'female'
p18
aS'i m male but i look like female i m kinda gay but juiced'
p19
aS'brianna'
p20
ag8
aS'no don t do that'
p21
aS'female'
p22
ag8
aS'female'
p23
aS'danielle'
p24
aS'daisy'
p25
aS'yanny'
p26
aS'yep'
p27
aS'i m not even sure myself'
p28
aS'i am pounds i weighed myself days ago'
p29
ag8
aS'male'
p30
aS'everyday'
p31
aS'saturday wednesdays and friday'
p32
aS'kg'
p33
aS'exercise'
p34
aS'yay'
p35
aS'ariana'
p36
aS'to lose some extra fat and be toned'
p37
ag8
aS'i want to have a nice beach body'
p38
aS'ash'
p39
aS'i want to get more cut more muscles'
p40
aS'female'
p41
aS'i would just like to live a healthy life style and get ride of my muffin top and love handles and just be more fit in general'
p42
aS'i ate half a ham sandwich and pretzels'
p43
aS'and a bowl of raspberrys strawberrys cherrys and blueberrys'
p44
aS'female'
p45
aS'ft'
p46
aS'yes'
p47
aS'so can you please remind me everyday'
p48
aS'i work out everyday but for my diet i have no idea what kind of food to eat everyday'
p49
aS'cm'
p50
aS'i can usually do all except monday but i am flexible'
p51
aS'female'
p52
aS'what about you'
p53
aS'i m'
p54
aS'sounds good'
p55
aS'abigail'
p56
aS'i want to lose weight and tone'
p57
aS'female'
p58
aS'bai'
p59
aS'monday thursday sunday'
p60
aS'female'
p61
aS'awesome'
p62
aS'hebah'
p63
aS'ft'
p64
aS'yes i ate scrambled eggs'
p65
aS'victoria'
p66
aS'how many calories is that in total'
p67
aS'feet'
p68
aS'male'
p69
aS'lbs'
p70
aS'haha thanks i weigh lbs'
p71
ag8
aS'yes'
p72
aS'i m hannah'
p73
aS'log beer'
p74
aS'monday wednesday friday'
p75
aS'male'
p76
aS'female'
p77
aS'lbs'
p78
aS'alyssa'
p79
ag8
aS'awesome'
p80
aS'lbs'
p81
aS'if it s free'
p82
aS'alida'
p83
aS'sure'
p84
aS'i just ate lunch can'
p85
aS'lexie'
p86
aS'lbs'
p87
ag8
aS'i need motivation'
p88
ag8
ag8
aS'lauren'
p89
aS'madison'
p90
aS'yes'
p91
aS'yes'
p92
aS'this sounds very good indi'
p93
aS'foot'
p94
aS'gets abs feel confident about my body'
p95
aS'morgan'
p96
aS'cailey'
p97
aS'parker'
p98
aS'who dous that work'
p99
aS'i already work out every day except for sometimes i have day off a week so everyday mostly'
p100
aS'feet inches'
p101
aS'female'
p102
aS'how many calories am i aloud to consume'
p103
ag8
aS'deidra'
p104
aS'years'
p105
aS'monday wednesday thursday saturday'
p106
aS'female'
p107
aS'thanks'
p108
aS'test'
p109
aS'yes thanks'
p110
aS'getting bigger thighs'
p111
aS'gain mass'
p112
aS'ok monday tuesday wednesday friday'
p113
ag8
aS'female'
p114
aS'thank you'
p115
aS'female'
p116
aS'kathlyn'
p117
aS'yes please'
p118
aS'leslie'
p119
aS'female'
p120
aS'az'
p121
aS'female'
p122
aS'female'
p123
aS'yeah'
p124
aS'male'
p125
aS'yes'
p126
aS'female'
p127
ag8
aS'claire'
p128
aS'yesss'
p129
ag8
aS'female'
p130
aS'y'
p131
aS'to loose weight and get toned'
p132
aS'mwt'
p133
aS'kelsey'
p134
aS'ashlyn'
p135
aS'i had a shake made with bananas and scoops of protein'
p136
aS'female'
p137
aS'thanks'
p138
aS'female'
p139
aS'i can work out everyday'
p140
aS'yes that sound good'
p141
aS'mckenna'
p142
ag8
aS'female'
p143
aS'christian'
p144
aS'my fitness goal is to become leaner get to around kg'
p145
aS'tryston'
p146
aS'female'
p147
aS'male'
p148
aS'loose weight'
p149
ag8
aS'i wanna get in a good shape but not over the top i think i wanna loose a bit of weight and add quite alot of muscle to me i wanna stay healthy and stick to a good diet'
p150
aS'paige'
p151
aS'hannah'
p152
aS'ok i will'
p153
ag8
aS'sally'
p154
aS'to be happier and healthier and faster and to lose some weight'
p155
ag8
ag8
aS'motivate me'
p156
aS'cm'
p157
aS'yes its good'
p158
aS'yes'
p159
aS'lita'
p160
aS'ft'
p161
aS'braxton'
p162
ag8
aS'yes'
p163
aS'also just had a banana smoothie with protein powder'
p164
aS'ya'
p165
aS'abby'
p166
aS'beach body'
p167
aS'kg'
p168
aS'krista'
p169
aS'thanks indi'
p170
ag8
aS'kasandra'
p171
aS'firm and toned stomach firm and a bit bigger butt and upper arm strength'
p172
aS'female'
p173
aS'yes please'
p174
aS'female'
p175
aS'motivate me'
p176
aS'pounds'
p177
aS'do you like unicorns'
p178
aS'i would like to get a pack of abs could you help me'
p179
aS'obviously not that sensitive otherwise i wouldn t have downloaded this app and be doing this right now kg'
p180
aS'female'
p181
aS'pardis'
p182
ag8
aS'female'
p183
aS'ben'
p184
aS'i m actually not sure'
p185
aS'im'
p186
aS'i want to cut out a lot of sugar and carbs'
p187
aS'yup'
p188
ag8
aS'yes'
p189
aS'test'
p190
aS'do you know alexandra'
p191
aS'years old'
p192
ag8
aS'days i don t work'
p193
aS'emmara'
p194
aS'so i have to upgrade'
p195
aS'thank you'
p196
aS'i ate pieces of toast egg and piece of cheese how many calories'
p197
aS'yes please'
p198
aS'yes'
p199
aS'yes'
p200
aS'rae'
p201
ag8
aS'feet inch'
p202
aS'female'
p203
ag8
ag8
aS'hello'
p204
aS'okay'
p205
aS'saunders'
p206
aS'jordyn'
p207
aS'i want to lose weight and train for a half marathon'
p208
aS'i had a bowl of pesto pasta'
p209
aS'yes'
p210
aS'every day but sunday'
p211
aS'yes'
p212
aS'male'
p213
aS'foot inches'
p214
aS'odea'
p215
aS'sounds perfect to me'
p216
aS'yes please'
p217
aS'hello'
p218
ag8
aS'jaime'
p219
ag8
aS'male'
p220
aS'female'
p221
aS'female'
p222
aS'alexa'
p223
aS'ashley'
p224
ag8
aS'hello'
p225
aS'foot inches'
p226
aS'brady mcadams'
p227
aS'nice'
p228
aS'yes'
p229
aS'i want to eat healthy so that i will not get sick as often and i would like to be able to gain muscle strength'
p230
aS'monday to friday'
p231
aS'morgan chapman'
p232
ag8
ag8
ag8
aS'i d like to lose pounds and have a toned stomach and toned arms'
p233
aS'emily'
p234
aS'motivation me'
p235
aS'female'
p236
aS'yes please'
p237
ag8
aS'jillian'
p238
aS'give me reminders to exercise in'
p239
aS'tiffany'
p240
aS'female'
p241
aS'but you can call me queen sophia'
p242
aS'ok'
p243
aS'to get toned and a flat stomach and better butt'
p244
aS'female'
p245
aS'monday saturday'
p246
ag8
aS'male and you'
p247
ag8
aS'female'
p248
aS'flannery'
p249
aS'stone and pounds'
p250
aS'i really want to lose weight a few stone would be nice but i know it will be slow to tone up would also be nice but i could focus on that later'
p251
ag8
aS'yes pls'
p252
aS'meme lord'
p253
aS'yay'
p254
aS'for breakfast i had an omelette with tomato and veggie ham'
p255
aS'how many calories have i consumed today'
p256
aS'inches'
p257
aS'female'
p258
aS'hello'
p259
aS'female'
p260
aS'fuck yeah'
p261
aS'yes'
p262
aS'lbs'
p263
aS'had slices of cheese'
p264
aS'kennedy'
p265
aS'female'
p266
aS'female'
p267
aS'connor'
p268
aS'yeah'
p269
aS'ok'
p270
ag8
aS'hannah marie mcgill'
p271
aS'what if i don t upgrade'
p272
ag8
aS'sunday s tuesday s thursday s and friday s or whatever days i have practice'
p273
aS'yes'
p274
aS'can u count the calories i ate for breakfast and lunch'
p275
aS'mary'
p276
aS'feet inches'
p277
aS'female'
p278
aS'bryce'
p279
aS'so roughly how many calories did i eat today'
p280
ag8
aS'do i have to pay to log anything'
p281
ag8
aS'motivate me'
p282
aS'probably around foot'
p283
aS'female'
p284
aS'sure'
p285
ag8
aS'monday wednesday friday and sunday'
p286
aS'i did the grouse grind today'
p287
aS'sure'
p288
aS'logan'
p289
aS'nanthini'
p290
aS'yes'
p291
aS'female'
p292
ag8
ag8
aS'i walked for hour'
p293
ag8
aS'male'
p294
aS'my last meal was three pieces of salami on white bread and water'
p295
aS'i want motivation'
p296
aS'thanks'
p297
aS'well i mean i would like to eat healthier'
p298
aS'yes'
p299
aS'mon tues weds thurs fri'
p300
ag8
aS'female'
p301
aS'yes please'
p302
ag8
aS'cm'
p303
aS'female'
p304
ag8
aS'monday tuesday wednesday thursday friday saturday'
p305
ag8
ag8
aS'female'
p306
ag8
aS'i think i weigh around lbs'
p307
aS'okay'
p308
aS'emma'
p309
aS'taco meat taco chips and cheese'
p310
aS'i had a coffee with almond milk and a bowl of raspberrys blueberrys strawberrys and cherrys'
p311
aS'thanks'
p312
aS'yes'
p313
aS'female'
p314
aS'i need motivation'
p315
aS'yes'
p316
aS'female'
p317
ag8
aS'hi indi my name is enzo'
p318
aS'female'
p319
aS'feet inches'
p320
aS'ok'
p321
aS'tuesday thursday and sunday'
p322
aS'whatever days really'
p323
aS'yes please'
p324
aS'can i log food please'
p325
ag8
aS'pounds'
p326
aS'i want abs'
p327
aS'yes please'
p328
aS'monday s and tuesday s'
p329
aS'i want tone my arms get a toned stomach pack and get a bigger butt'
p330
aS'monday tuesday thursday sunday'
p331
aS'male'
p332
ag8
aS'cool dude'
p333
aS'in november'
p334
ag8
aS'female'
p335
aS'alina'
p336
aS'just'
p337
aS'i just ate a bowl of spaghetti with table spoons of pesto can you please log it'
p338
aS'male'
p339
aS'thank you'
p340
aS'yes'
p341
ag8
aS'monday to saturday'
p342
aS'yes i would'
p343
aS'right now lbs'
p344
aS'female'
p345
ag8
aS'selin'
p346
aS'female'
p347
aS'ok sure'
p348
aS'everyday'
p349
aS'image odcathjecqec rvp grzzxvq b gblgkbfxm hktciyv u jpg'
p350
aS'monday tuesday wednesday thursday'
p351
aS'female'
p352
ag8
aS'how long should i stretch before playing soccer'
p353
aS'female'
p354
aS'jess'
p355
aS'i think kg'
p356
aS'cody'
p357
aS'okay thank you'
p358
aS'i ate another calories'
p359
aS'yes i had to have months off of exercise because of an injury'
p360
ag8
aS'female'
p361
aS'i had pieces of toast with peanut butter'
p362
aS'taylor'
p363
aS'yayyy'
p364
aS'okay what do you recommend then'
p365
aS'for now'
p366
ag8
aS'yes please'
p367
aS'ok'
p368
ag8
aS'fit healthy'
p369
aS'i just want to tone everything more'
p370
ag8
aS'but i m hate a lot of food'
p371
aS'this sounds great'
p372
aS'i m a female'
p373
aS'nico'
p374
aS'image c boarpvvpbaqqmeo wh xea dtayiqvttrstvddee h jpg'
p375
ag8
ag8
aS'monday'
p376
aS'what are some good exercises for building lats and back muscles'
p377
aS'female'
p378
aS'garo'
p379
aS'female'
p380
ag8
aS'ok so how much should i be exercising and eating per day'
p381
aS'yes please'
p382
aS'monday tuesday wednesday thursday friday saturday'
p383
ag8
aS'jose'
p384
aS'look like a porn star'
p385
aS'thanks i also had a cup of coffee with coconut milk and coconut sugar'
p386
aS'today i hiked for hours and swam for minutes'
p387
aS'emilie'
p388
aS'once you ve logged my food will i be able to look back at what i ve eaten'
p389
aS'female'
p390
ag8
aS'stone'
p391
aS'hannah'
p392
aS'female'
p393
ag8
aS'monday s wednesday s thursdays'
p394
aS'i don t have enough money in my itunes account sorry'
p395
aS'af'
p396
aS'how'
p397
aS'kev'
p398
aS'female'
p399
aS'yes'
p400
aS'female'
p401
aS'eh'
p402
aS'teylor'
p403
aS'feet inches'
p404
ag8
aS'female'
p405
aS'maddie'
p406
ag8
aS'yea'
p407
aS'yes i do'
p408
aS'i weight pounds'
p409
ag8
aS'monday wednesday friday idk'
p410
aS'saltanat'
p411
aS'yes'
p412
aS'motivate me to go hiking'
p413
aS'gage'
p414
aS'that sounds good'
p415
ag8
aS'well i don t have any'
p416
aS'ft or cm'
p417
aS'erika glenn'
p418
aS'shannon jade'
p419
aS'lbs'
p420
aS'i m'
p421
aS'give me some motivation fam'
p422
ag8
aS'yes'
p423
aS'ft in'
p424
aS'ellie'
p425
aS'yes please'
p426
aS'probably'
p427
aS'i think'
p428
aS'downz'
p429
ag8
aS'perfect'
p430
ag8
aS'robyn'
p431
aS'be pounds slimmer and gain muscle'
p432
aS'kelly'
p433
aS'catarina'
p434
aS'thank you'
p435
aS'if you want'
p436
aS'ok sounds good'
p437
aS'i want to slim my thighs and build a booty and tone my stomach by december'
p438
aS'yes'
p439
aS'yup'
p440
aS'i want to make sure i stretch and roll out my muscles every night'
p441
ag8
ag8
aS'female'
p442
aS'lbs'
p443
aS'to increase my cardio strengthen my upper body and to lose some weight'
p444
aS'male'
p445
aS'sounds great'
p446
aS'i want to lose about pounds'
p447
aS'yes'
p448
aS'i m about'
p449
aS'lbs'
p450
aS'kg'
p451
ag8
aS'zaira'
p452
aS'sounds awesome'
p453
aS'brooke'
p454
aS'yes please'
p455
aS'yes'
p456
aS'ok'
p457
aS'male'
p458
aS'indi'
p459
ag8
ag8
aS'i upgraded'
p460
aS'ft'
p461
aS'i am years old'
p462
aS'jadin'
p463
ag8
aS'yes'
p464
aS'female'
p465
ag8
aS'female'
p466
ag8
aS'cinnamon raisin toast with margarine coffee with almond milk veggie delite footlong from subway'
p467
aS'sounds good'
p468
ag8
aS'does this cost anything'
p469
aS'feet and inches'
p470
aS'female'
p471
aS'i want to tone up my body'
p472
aS'female'
p473
ag8
aS'ok'
p474
aS'i had two pieces of multigrain toast with earth balance spread'
p475
ag8
aS'lbd'
p476
aS'meghan'
p477
aS'yes'
p478
ag8
aS'sommer'
p479
aS'sunday s monday s and tuesday s'
p480
aS'nikki'
p481
aS'awesome that will be great and yes please'
p482
aS'ok'
p483
aS'thanks'
p484
aS'chelsea bian'
p485
aS'okay'
p486
aS'yes please'
p487
aS'yes that sounds great'
p488
aS'can you track my food and exercise and motivate me to work out'
p489
aS'motivate me info'
p490
ag8
aS'female'
p491
aS'oh yay'
p492
aS'foot'
p493
aS'monday tuesday wednesday thursday friday'
p494
aS'body fat lb'
p495
aS'monday wednesday friday'
p496
aS'egg sandwich on rye'
p497
aS'sure'
p498
aS'lbs'
p499
aS'francis'
p500
aS'i m going to guess is that okay'
p501
aS'yes'
p502
aS'indi i need motivation to eat better'
p503
aS'female'
p504
aS'monday through friday'
p505
aS'rachael'
p506
ag8
aS'al'
p507
aS'i want to loose pounds to have a beach body'
p508
aS'ok'
p509
aS'diarmuid'
p510
ag8
aS'st'
p511
aS'is when i want to work out'
p512
aS'motivate me'
p513
aS'cool'
p514
aS'pounds'
p515
aS'savannah'
p516
aS'i ate two peaches'
p517
aS'female'
p518
aS'yes i would'
p519
aS'olivia'
p520
aS'okay thanks'
p521
aS'yes'
p522
aS'ok'
p523
ag8
ag8
aS'are you there'
p524
aS'nah'
p525
aS'monday wednesday thursday and sunday'
p526
aS'yes i would mind tom'
p527
aS'foot inches'
p528
aS'yes please'
p529
aS'give me motivation to eat healthy'
p530
aS'female'
p531
aS'yes please'
p532
aS'everyday'
p533
aS'female'
p534
aS'carl'
p535
aS'chloe'
p536
ag8
aS'my goals are to not gain the freshman and to keep a healthy weight and good eating habits'
p537
aS'i had a fl oz can of pepsi this morning'
p538
aS'female'
p539
ag8
aS'female'
p540
aS'red beans rice lettuce and cherry tomatoes'
p541
aS'wispa chocolate bar chocolate muffin apple grapes'
p542
aS'hi'
p543
aS'can you please send me some motivation'
p544
aS'yes please'
p545
aS'monday tuesday wednesday thursday friday'
p546
aS'sounds awesome'
p547
aS'motivation to go to the gym'
p548
aS'yes that sounds good thank you'
p549
aS'a bowl of pasta with marinara sauce'
p550
aS'hehe'
p551
aS'madison'
p552
aS'karlie'
p553
aS'monday tuesday wednesday thursday friday'
p554
aS'ivonne'
p555
aS'jody'
p556
aS'what should i eat for lunch'
p557
aS'ok'
p558
ag8
aS'skylar'
p559
aS'years old'
p560
ag8
aS'saturday sunday tuesday and wednesday till school starts'
p561
aS'female'
p562
aS'feet tall'
p563
aS'feet inches'
p564
aS'female'
p565
aS'kg'
p566
aS'female'
p567
aS'indi i need motivation to eat healthier'
p568
aS'jess'
p569
aS'i did sit ups burpees squats'
p570
ag8
aS'like lb'
p571
ag8
aS'thank you indi that was good motivation'
p572
ag8
aS'i dont have any'
p573
aS'all except weekends'
p574
ag8
ag8
aS'i ate one cinnamon raisin bagel cup of cheerios of a waffle and sausage link'
p575
aS'kirsty'
p576
aS'joey'
p577
aS'yess'
p578
aS'lol no worries pal pounds'
p579
aS'thanks'
p580
aS'female'
p581
aS'yes'
p582
aS'yes please'
p583
aS'that all sounds great thank you'
p584
aS'yes please'
p585
aS'lbs'
p586
aS'i had another sandwich that used demesters whole grain bread with a table spoon and a half of pesto cucumber and tomato and spinach'
p587
aS'yo'
p588
aS'monday tuesday wednesday thursday friday'
p589
ag8
ag8
aS'sadie'
p590
aS'yay'
p591
ag8
aS'female'
p592
aS'any day i have an unpredictable schedule'
p593
aS'male'
p594
aS'weekdays'
p595
aS'male'
p596
aS'okay i also had a cheese omelet for dinner'
p597
ag8
aS'courtney'
p598
ag8
aS'monday tuesday wednesday thursday friday'
p599
aS'female'
p600
aS'yes'
p601
aS'female'
p602
aS'yes please'
p603
ag8
ag8
aS'yay awesome'
p604
aS'female'
p605
aS'female dude'
p606
aS'male'
p607
ag8
aS'everyday'
p608
aS'thank you'
p609
ag8
aS'mia'
p610
aS'lbs'
p611
aS'yay'
p612
aS'can u log my food'
p613
ag8
ag8
aS'female'
p614
aS'femal'
p615
ag8
aS'heather'
p616
aS'years'
p617
aS'maggie'
p618
aS'i need motivation'
p619
aS'my weight goal is to lose about pounds and since i m running cross country i would like to run for exercise'
p620
aS'female'
p621
aS'yes it sounds good'
p622
ag8
aS'summerbody'
p623
aS'female'
p624
aS'female'
p625
aS'alex'
p626
aS'pounds lbs'
p627
ag8
aS'ft i think'
p628
aS'tell me something inspiring'
p629
aS'ivan'
p630
aS'i m years old'
p631
aS'mallory'
p632
aS'i cant do wednesday all othher days are good'
p633
aS'yes pleas'
p634
ag8
aS'female'
p635
aS'paris'
p636
aS'yes'
p637
ag8
aS'cool'
p638
aS'that ll be great'
p639
aS'i work out on monday wednesday and saturday if do any other additional workout i will tell you about this'
p640
aS'yes'
p641
aS'jordan'
p642
aS'female'
p643
aS'i ate a starbucks thai tuna wrap'
p644
aS'taylor'
p645
aS'yes'
p646
aS'yes'
p647
aS'sounds great'
p648
aS'i want to eat a burger'
p649
aS'indi i need motivation to work out'
p650
aS'cm'
p651
ag8
aS'lindsay'
p652
aS'no'
p653
aS'i am years old'
p654
aS'male'
p655
aS'sophia'
p656
aS'talyn'
p657
aS'i want to lose at least lbs to be at my first goal weight of by my birthday february th'
p658
aS'female'
p659
ag8
aS'i think im cm'
p660
ag8
aS'm'
p661
aS'haha about'
p662
aS'yes'
p663
aS'stone'
p664
aS'lily'
p665
aS'yes food intake aswell'
p666
aS'around i think'
p667
aS'female'
p668
aS'norman'
p669
aS'lbs'
p670
aS'i figure skate monday tuesday friday saturday go to the gym wednesday thursday sunday usually'
p671
aS'and improve posture'
p672
ag8
aS'i ate breakfast this morning'
p673
aS'male'
p674
aS'meter'
p675
aS'female'
p676
aS'yes please'
p677
aS'every day except wednesday and sunday'
p678
aS't a'
p679
aS'female'
p680
aS'ok'
p681
aS'yeah'
p682
aS'ok'
p683
aS'sercan'
p684
ag8
aS'nik zara'
p685
aS'yes'
p686
aS'monday tuesday wednesday thursday saturday and sunday'
p687
aS'i m feet and inches'
p688
aS'female'
p689
aS'female'
p690
aS'shea'
p691
aS'male boiiii'
p692
aS'female'
p693
aS'pounds'
p694
aS'female'
p695
aS'cm'
p696
aS'rachel'
p697
aS'female'
p698
aS'yes'
p699
aS'i want to build muscle and get lean'
p700
ag8
aS'ft in'
p701
aS'elena'
p702
aS'yes'
p703
aS'faye'
p704
aS'yay'
p705
aS'i ate a peach'
p706
aS'yes'
p707
aS'thanks indi talk to you tomorrow'
p708
ag8
aS'yes'
p709
aS'female'
p710
aS'lbs'
p711
aS'male'
p712
ag8
aS'yay'
p713
aS'track my food fam i m a heavy eater but nigga trynna get lean u know i mean'
p714
aS'i wanna lose pounds so i wanna be pounds in like months or less'
p715
ag8
aS'tiegan'
p716
ag8
aS'kaylee'
p717
aS'get stronger and eat healthier food'
p718
aS'yes'
p719
ag8
aS'it depends on the day'
p720
aS'pounds'
p721
aS'bro count how much colonies i burn'
p722
aS'squats'
p723
aS'lbs'
p724
ag661
aS'ariana'
p725
aS'hi'
p726
aS'years'
p727
aS'thanks'
p728
ag8
aS'female'
p729
aS'yes please'
p730
aS'yes'
p731
aS'female'
p732
aS'monday wednesday friday sunday'
p733
aS'motivation'
p734
aS'yay thank you'
p735
aS'i want to get reminders to work out'
p736
aS'nathan'
p737
aS'male'
p738
aS'male'
p739
aS'abby'
p740
aS'motivatr me'
p741
aS'mackenzie'
p742
aS'yep'
p743
aS'thank you'
p744
aS'yeah i ve already worked out today and eaten a couple things can we start with those'
p745
aS'i want to be lean and gain a bit of muscle'
p746
aS'how many calories have i had today'
p747
ag8
aS'yes food and exercise'
p748
ag8
aS'male'
p749
aS'liam'
p750
ag8
ag8
ag8
aS'i m pretty open about my weight anyways i m pounds'
p751
aS'emma'
p752
aS'yo'
p753
aS'what s a healthy and good breakfast to eat'
p754
aS'i ate a horse'
p755
ag8
aS'sounds good'
p756
aS'i need motivation im tired'
p757
aS'yes'
p758
aS'lu'
p759
ag8
ag8
aS'abby'
p760
aS'cm'
p761
aS'gabriela'
p762
aS'i am'
p763
ag8
aS'yes'
p764
aS'lauren'
p765
aS'ella'
p766
aS'female'
p767
ag8
ag8
aS'logan'
p768
ag8
aS'katie'
p769
aS'i did subscribe'
p770
aS'sounds great'
p771
aS'kayli'
p772
aS'sure'
p773
aS'aj'
p774
ag8
aS'great'
p775
ag8
aS'turkey cheese and lettuce sandwich on white bread'
p776
aS'today i have eaten a serving of pasta carbonara a glass of orange juice and three packs of fruit snacks'
p777
aS'i need motivation'
p778
aS'no'
p779
ag8
aS'and to eat some healthier food but i do have a sweet tooth so have some sweets to every once in a while'
p780
aS'can i get some motivation'
p781
aS'yes please'
p782
aS'yes'
p783
aS'okay awesome'
p784
aS'ok'
p785
aS'female'
p786
aS'i want to gain back the cardio fitness and muscle that i lost'
p787
aS'my goal i want to be is or st and i want to be healthier and be skinny'
p788
aS'motivate me to go for a run'
p789
aS'pounds'
p790
aS'what s the best time to workout'
p791
aS'caley'
p792
aS'shandra'
p793
aS'foot'
p794
aS'lexi braver'
p795
ag8
ag8
aS'i honestly eat whatever that s why i ask for you advice on food'
p796
aS'jordan'
p797
aS'about stone pounds'
p798
aS'everyday'
p799
aS'female'
p800
aS'yes that sounds great when do we start'
p801
aS'three mild chicken tenders'
p802
aS'lauren'
p803
aS'i wanna lose pounds'
p804
aS'female'
p805
aS'i think i m'
p806
ag8
aS'motivate me'
p807
aS'casey'
p808
aS'ok can i have some motivation'
p809
aS'yes that sounds good'
p810
aS'to be physically fit get a six pack have muscles be someone people remember be happy of myself'
p811
aS'hey indi'
p812
aS'lbs'
p813
ag8
aS'yes'
p814
ag8
aS'yes'
p815
aS'my name is kevin my hight is lb'
p816
aS'monday wednesday and friday if i can and have time'
p817
aS'i d like to be more active and lose a few pounds'
p818
aS'delara'
p819
aS'perfect'
p820
aS'female'
p821
aS'female'
p822
aS'yes'
p823
aS'female'
p824
ag8
aS'caelidh'
p825
aS'motivation'
p826
aS'dharma olander'
p827
aS'yes'
p828
aS'janelle'
p829
ag8
aS'yes please'
p830
ag8
aS'female'
p831
aS'saturday'
p832
aS'thanks'
p833
ag8
aS'female'
p834
aS'kenz'
p835
aS'james'
p836
aS'jaweria'
p837
aS'nour'
p838
aS'fuck you bitch'
p839
ag8
aS'i need to gain weight lose fat and replace it with muscle'
p840
aS'toned and fit and healthy'
p841
aS'can i have some motivation indi'
p842
aS'female'
p843
aS'why are you so slow'
p844
aS'jenna'
p845
ag8
aS'female'
p846
ag661
aS'encourage me to workout monday wednesday and thursday please'
p847
aS'for breakfast i had pieces of toast two with butter one with cream cheese at break i had a nature valley granola bar and some crackers'
p848
aS'male'
p849
aS'female'
p850
ag8
aS'okay perfect what else is left'
p851
aS'nice big butt toned arms and a flat tummy'
p852
aS'male'
p853
aS'kg'
p854
aS'kg'
p855
aS'i work almost every day so i don t have much time to work out'
p856
ag8
aS'lewis'
p857
ag8
aS'andrea'
p858
aS'how s his work'
p859
ag8
aS'sure'
p860
ag8
aS'lose as much weight as possible have a pack'
p861
aS'lbs'
p862
aS'yes ma am'
p863
aS'i wish to lose about to pounds i need to go to the gym at least times a week minimum'
p864
aS'female'
p865
ag8
aS'yes'
p866
aS'ansley'
p867
ag8
aS'yeah it sounds good'
p868
aS'to lose lbs'
p869
aS'female'
p870
aS'my name is sherri'
p871
ag8
aS'lbs'
p872
ag8
ag8
aS'lose weight get healthy feel sexy'
p873
aS'to have a beach body and be all around fit and healthy'
p874
aS'female'
p875
aS'i hate you'
p876
aS'cm'
p877
aS'indi can you log the breakfast i m eating please'
p878
aS'around kg'
p879
aS'i don t have any days in mind yet'
p880
aS'male'
p881
aS'female'
p882
aS'sydney l thompson but you can call me sydney'
p883
ag8
aS'do you need me to tell you what the calorie amount is in what i eat yes i would like you to log my exercise'
p884
aS'lbs'
p885
aS'i would like to tone my legs and get a flat stomach'
p886
aS'nasheli'
p887
aS'pounds'
p888
ag8
aS'bella'
p889
aS'nicole'
p890
ag8
ag8
aS'sydney'
p891
aS'kg'
p892
ag8
aS'female'
p893
aS'wanting'
p894
aS'foot'
p895
aS'sounds great haha'
p896
aS'yes'
p897
aS'yes please'
p898
aS'would you send me motivation too'
p899
aS'female'
p900
aS'feet inches'
p901
aS'i m a girl'
p902
aS'i m not sure but i want to at least times a week'
p903
aS'monday wednesday thursday'
p904
aS'i think around pounds'
p905
aS'sounds great'
p906
aS'plus i have took the bike minutes times'
p907
ag8
ag8
aS'get toned'
p908
aS'mikayla'
p909
aS'monday tuesday wednesday thursday friday saturday'
p910
aS'kiana'
p911
aS'female'
p912
ag8
ag8
ag8
aS'female'
p913
aS'female'
p914
aS'i need help working out in the mornings'
p915
aS'i was thinking about running days a week would that be ok'
p916
aS'rya'
p917
ag8
aS'ayah'
p918
aS'foot'
p919
aS'motivate meeee'
p920
aS'female'
p921
aS'male'
p922
aS'lea lanette holland'
p923
aS'pounds'
p924
aS'i had a coffee with almond milk and a bowl of raspberrys blueberrys strawberrys cherrys'
p925
ag8
aS'nice'
p926
aS'ok i ate a piece of toast with one egg and half a banana for dinner'
p927
aS'how much protein and iron have i had today'
p928
aS'around lbs'
p929
aS'about'
p930
ag8
aS'francesca'
p931
ag8
aS'morgan'
p932
aS'wow awesome'
p933
ag8
aS'emilee'
p934
aS'i want to maintain my health'
p935
aS'i m thinking about it do you need a credit card'
p936
aS'i want to work out on my days off from work but i don t know what they are is that a problem'
p937
aS'cameron'
p938
aS'how many calories did i burn'
p939
aS'alexis'
p940
aS'female'
p941
aS'matt'
p942
aS'male'
p943
aS'build more definition and muscle'
p944
aS'kacey'
p945
aS'i have also eaten slices of oat bread with butter one bun with mayo and ham and salad'
p946
aS'ethan'
p947
aS'only'
p948
aS'could i have motivation for healthy eating'
p949
aS'lose weight eat healthy get toned'
p950
ag8
aS'i really don t want to work out today'
p951
ag8
aS'corrina'
p952
aS'no thanks'
p953
ag8
ag8
aS'i ate one pear'
p954
aS'okay'
p955
ag8
aS'i am fifteen years old'
p956
aS'what did i eat today'
p957
aS'females'
p958
aS'yes'
p959
aS'i just want to tone everything more'
p960
aS'cameron'
p961
aS'elena'
p962
aS'oh ok'
p963
aS'josie'
p964
aS'pounds'
p965
aS'idk'
p966
aS'what s yours'
p967
aS'have a toned body and feel good with myself'
p968
aS'no'
p969
aS'meris'
p970
aS'john'
p971
ag8
aS'pounds'
p972
aS'are you a male or a female'
p973
aS'i measure'
p974
aS'loose pounds and eat my diet food'
p975
aS'female'
p976
aS'claire'
p977
aS'can you log my food'
p978
aS'and a half'
p979
aS'hey i am years old'
p980
aS'ok thnx'
p981
aS'female'
p982
aS'daisy'
p983
aS'jakob'
p984
ag8
aS'female'
p985
aS'for breakfast today i had yoghurt with raspberries blackberries granola and chia seeds'
p986
aS'i am'
p987
aS'all'
p988
aS'callie'
p989
aS'jabrail'
p990
aS'thanks can i please log exercise too'
p991
aS'jordan'
p992
ag8
aS'female'
p993
ag8
aS'yes'
p994
aS'liam'
p995
ag8
ag8
ag8
aS'okay'
p996
aS'shelbe'
p997
aS'courtney'
p998
ag8
aS'female'
p999
aS'bowl of rice'
p1000
aS'chelsea'
p1001
ag8
aS'my fitness goals are to just stay in shape i use to work out lots i had a pack and everything but now i m just hoping to keep a good healthy diet and get a flat stomach'
p1002
aS'elena'
p1003
aS'alexis'
p1004
aS'lbs'
p1005
aS'just to stay active and healthy i want to keep up on working out'
p1006
aS'lbs'
p1007
aS'devin'
p1008
aS'aryn'
p1009
aS'yeah i m excited'
p1010
aS'ok to be at least pounds and to lost weight in my waist'
p1011
aS'stone'
p1012
ag8
ag8
aS'yes'
p1013
aS'i am years old'
p1014
ag8
aS'yes'
p1015
aS'female'
p1016
aS'hahahah'
p1017
ag8
aS'any motivation to exercise'
p1018
aS'can you motivate me'
p1019
aS'marlee'
p1020
aS'your'
p1021
aS'i had a chicken burger with mayo and lettuce'
p1022
aS'yay'
p1023
aS'ben'
p1024
aS'euan'
p1025
aS'thursday saturday tuesday'
p1026
aS'dinie'
p1027
aS'yes'
p1028
ag8
aS'yvette'
p1029
aS'okay yes log my excersise'
p1030
ag8
ag8
ag8
aS'to'
p1031
ag8
aS'smileey'
p1032
ag8
aS'male'
p1033
aS'markus'
p1034
aS'about'
p1035
aS'lbs'
p1036
aS'jt'
p1037
aS'female'
p1038
aS'nicole'
p1039
aS'yes'
p1040
aS'destiny'
p1041
aS'female'
p1042
aS'i really would like some abs and just to get toned and stay that way'
p1043
aS'claude'
p1044
aS'tyler'
p1045
aS'female'
p1046
aS'yes pls'
p1047
aS'sounds good'
p1048
aS'female'
p1049
ag8
aS'what information do you know about me'
p1050
aS'no'
p1051
aS'tori'
p1052
aS'female'
p1053
aS'tristan'
p1054
aS'good bye'
p1055
aS'please break it down for me'
p1056
ag8
aS'alyssa'
p1057
aS'oz bag of potato chips'
p1058
aS'yezen anabtawi'
p1059
aS'emily'
p1060
aS'female'
p1061
aS'indi my name is brianna'
p1062
aS'lbs'
p1063
aS'jacky'
p1064
aS'thanks i also had a frozen waffle'
p1065
aS'yes'
p1066
aS'yes'
p1067
aS'about'
p1068
aS'monday s tuesday s and friday s'
p1069
ag8
aS'how do you track my food exercise'
p1070
aS'female'
p1071
aS'beach body'
p1072
aS'yes please'
p1073
aS'female'
p1074
aS'i weigh about pounds'
p1075
aS'so today i rowed for hour and minutes'
p1076
aS'ft in'
p1077
aS'foot inches'
p1078
aS'camryn'
p1079
aS'i want to try to get in good shape l want to become more toned but most importantly i want to lead a healthy life style'
p1080
aS'i m'
p1081
aS'brianna'
p1082
aS'sofia'
p1083
aS'motivation i m at the gym'
p1084
aS'i m not sure yet'
p1085
aS'yes please'
p1086
aS'andrew'
p1087
aS'ok sounds good'
p1088
aS'female'
p1089
aS'yes'
p1090
aS'michelle'
p1091
aS'ok'
p1092
aS'yeah'
p1093
aS'workout at least hours a week'
p1094
ag8
aS'pounds'
p1095
aS'sounds fantastic'
p1096
aS'yes please'
p1097
aS'female'
p1098
aS'brea'
p1099
ag8
aS'h'
p1100
aS'female'
p1101
aS'male'
p1102
aS'male'
p1103
aS'cm'
p1104
aS'male'
p1105
ag8
ag8
aS'i need motivation'
p1106
aS'azim azman'
p1107
aS'roger'
p1108
aS'female'
p1109
aS'get better stamina'
p1110
aS'eileen'
p1111
aS'mia'
p1112
aS'everyday grinding daug everyday'
p1113
aS'wasila'
p1114
aS'how much calories should i be eating on a vegan diet to keep me healthy but also loose weight'
p1115
aS'kayla'
p1116
aS'female'
p1117
aS'female'
p1118
ag8
aS'what are some good ab exercises'
p1119
aS'female'
p1120
aS'lbs'
p1121
aS'female'
p1122
ag8
aS'female'
p1123
aS'ok'
p1124
aS'how many calories should i be consuming in a day'
p1125
aS'ok'
p1126
aS'i have also had a smoothie with frozen berries a banana spinach and almond milk'
p1127
aS'today i did zumba for one hour'
p1128
aS'female'
p1129
ag8
aS'female'
p1130
aS'molly'
p1131
aS'amandine'
p1132
aS'eyyyy'
p1133
ag8
aS'yo'
p1134
aS'brandi'
p1135
aS'julia'
p1136
ag8
aS'everyday'
p1137
aS'i want to lose around pounds by the end of december'
p1138
aS'jaden'
p1139
aS'yes thanks indi'
p1140
aS'yes'
p1141
ag8
aS'lbs'
p1142
aS'sean'
p1143
ag8
aS'ashley'
p1144
aS'lbs'
p1145
aS'female'
p1146
aS'i m not feeling well motivate me'
p1147
ag661
aS'owen'
p1148
aS'hi i m sarah'
p1149
aS'lbs'
p1150
aS'indi can you motivate me'
p1151
aS'wtf'
p1152
aS'yes that sounds good'
p1153
aS'female'
p1154
aS'yes please'
p1155
aS'samantha'
p1156
aS'feet inches'
p1157
aS'female'
p1158
aS'monday tuesday thursday friday'
p1159
aS'yes please'
p1160
aS'feet nd inches'
p1161
aS'kennedy'
p1162
aS'female'
p1163
aS'monday wednesday and friday saturday'
p1164
aS'male'
p1165
aS'female'
p1166
ag8
aS'chutiya'
p1167
aS'female'
p1168
aS'i m not going to the gym today rest day'
p1169
aS'male'
p1170
aS'bob'
p1171
aS'help me track my food and remind me to work out and motivate me'
p1172
aS'johnny'
p1173
aS'robyn'
p1174
aS'i don t have money'
p1175
aS'franzi'
p1176
ag8
ag8
aS'female'
p1177
ag8
ag8
aS'cup of orange juice'
p1178
aS'about i believe'
p1179
ag8
aS'yes'
p1180
aS'around cm'
p1181
aS'my fitness goals are to become vegan it makes me feel good and healthy so i would like it if you get upset with me when i tell you i ate something not vegan and my goals are also to loose weight i want to loose pounds'
p1182
aS'female'
p1183
aS'yes'
p1184
aS'approx'
p1185
aS'give me some motivation please'
p1186
aS'female'
p1187
aS'colby'
p1188
aS'my name is grace'
p1189
aS'i am'
p1190
aS'can i have some motivation'
p1191
aS'female'
p1192
aS'female'
p1193
aS'kelsie'
p1194
ag8
aS'ok yes please'
p1195
aS'can you help me with food'
p1196
aS'cinnamon raisin bread with peanut butter'
p1197
aS'from monday to friday'
p1198
ag8
aS'elya'
p1199
aS'i ate subway'
p1200
aS'no thanks i ve been to the gym days in a row and my job is a workout housekeeping'
p1201
aS'i would like to loose weight'
p1202
aS'yo'
p1203
aS'im not sure'
p1204
aS'parker'
p1205
aS'filzah'
p1206
aS'yes'
p1207
aS'female'
p1208
aS'okay today i eaten kg of veggie samosas'
p1209
aS'chelsie'
p1210
aS'yes please'
p1211
aS'everyday'
p1212
aS'yes that would be great'
p1213
aS'ree'
p1214
aS'to have better cardio to lose weight'
p1215
aS'mico'
p1216
aS'yeah that sounds great i d like to loose weight i d like to get to kg'
p1217
aS'brooke'
p1218
aS'male'
p1219
aS'yes sounds amazing'
p1220
ag8
aS'sure'
p1221
aS'sara'
p1222
aS'sure'
p1223
aS'to get toned'
p1224
aS'female'
p1225
aS'ft'
p1226
aS'janessa'
p1227
ag8
aS'loose pounds be in shape for basketball season'
p1228
aS'female'
p1229
ag8
aS'can we pick up where we left off'
p1230
aS'female'
p1231
aS'today i ate brown rice crackers with tablespoons of peanut butter and banana'
p1232
aS'yes sounds wonderful'
p1233
aS'of course we'
p1234
aS'abby'
p1235
ag8
aS'my name is alek'
p1236
aS'hi indi this morning i had a cup of plain greek yoghurt blackberries and a cup of chocolate chips for lunch i had cups of spinach and a half cup of feta cheese'
p1237
aS'motivate me indi'
p1238
aS'i have not working out for a week i need motivation'
p1239
aS'noura'
p1240
aS'female'
p1241
aS'thank you indi'
p1242
aS'yes'
p1243
ag8
aS'i work out days a week'
p1244
aS'female'
p1245
aS'about'
p1246
aS'mason'
p1247
aS'i also had chocolate covered pretzels grams of cheese whole grain crackers almonds and half a green apple'
p1248
aS'female'
p1249
aS'amey'
p1250
ag8
aS'katelyn'
p1251
aS'matty'
p1252
aS'female'
p1253
ag8
ag8
aS'monday wednesday and friday'
p1254
aS'i need motivation'
p1255
ag8
aS'and pranya chanda'
p1256
aS'lol'
p1257
aS'cosette'
p1258
aS'female'
p1259
aS'what should i call you'
p1260
aS'my name is madison'
p1261
aS'years old'
p1262
aS'no thanks p'
p1263
aS'okay'
p1264
ag8
aS'oz'
p1265
aS'st'
p1266
aS'female'
p1267
aS'work'
p1268
aS'thank you'
p1269
aS'i need motivation'
p1270
aS'i work out the worst part is eating my goal is stone or stone'
p1271
aS'dan'
p1272
aS'i ate kg of pineapple'
p1273
aS'sure'
p1274
aS'foot inches'
p1275
ag8
ag661
ag8
aS'female'
p1276
ag8
aS'minutes'
p1277
aS'around'
p1278
aS'sam'
p1279
ag8
aS'yes'
p1280
aS'ash'
p1281
aS'sounds good to me'
p1282
aS'female'
p1283
aS'female'
p1284
aS'male'
p1285
aS'indi'
p1286
aS'spaghetti bolongese'
p1287
aS'help me work out'
p1288
aS'toasty'
p1289
aS'makayla'
p1290
ag8
aS'i want to start eating healthier foods while trimming some belly weight'
p1291
aS'yes'
p1292
aS'rosalie'
p1293
aS'muz'
p1294
aS'yes'
p1295
aS'abby'
p1296
aS'i m not sure i think i m around'
p1297
aS'feet inches'
p1298
ag8
aS'bowl of vegetarian butter chicken rice'
p1299
ag8
ag8
aS'my name is davy'
p1300
aS'female'
p1301
aS'tigran'
p1302
aS'a bagel with cream cheese and butter with a strawberry smoothie'
p1303
aS'ft'
p1304
aS'run miles for cross country and sit ups and squats and just gain muscle'
p1305
ag8
aS'sarah'
p1306
aS'christine'
p1307
aS'adri'
p1308
aS'my name is david'
p1309
ag8
ag8
aS'hello indi'
p1310
aS'foot'
p1311
aS'will'
p1312
aS'female'
p1313
aS'test'
p1314
aS'chloe'
p1315
aS'to lose lbs and get a beach body and increase my cardio ability'
p1316
ag8
aS'i ate cup of cereal'
p1317
aS'alyssa'
p1318
aS'abel'
p1319
aS'yes'
p1320
aS'to get a flat stomach look hot af get toned lose fat'
p1321
ag8
aS'kelly'
p1322
aS'sheldon'
p1323
aS'juliii'
p1324
ag8
aS'female'
p1325
aS'morning indi i ate a banana today'
p1326
aS'i swam for hour and minutes'
p1327
aS'wtf'
p1328
aS'sam'
p1329
aS'female'
p1330
ag8
aS'female'
p1331
aS'yes'
p1332
aS'i m'
p1333
ag8
aS'female'
p1334
aS'yes'
p1335
aS'how many calories should i eat in a day to lose pounds in a month'
p1336
aS'i want to be skinny enough for xavier to like me i want to lose stomach fat'
p1337
ag661
aS'anthea'
p1338
aS'male'
p1339
aS'mariyah'
p1340
aS'missi'
p1341
aS'i just did twenty push ups'
p1342
aS'cm'
p1343
aS'my name is terra'
p1344
aS'yes'
p1345
aS'trying to lose pounds'
p1346
aS'yes please'
p1347
aS'kalyn'
p1348
aS'yessssss'
p1349
ag8
aS'melanie'
p1350
aS'male'
p1351
aS'female'
p1352
aS'taylor'
p1353
aS'yes please'
p1354
ag8
aS'about'
p1355
aS'how many calories did i burn'
p1356
aS'male'
p1357
aS'alexis'
p1358
aS'female'
p1359
aS'i m not sure'
p1360
aS'for my dinner i had a of a plate of boiled rice and chili'
p1361
aS'jada'
p1362
aS'foot inches'
p1363
aS'cm'
p1364
aS'eryn'
p1365
aS'yes'
p1366
aS'female'
p1367
aS'okk'
p1368
ag8
aS'female'
p1369
aS'i m female'
p1370
aS'kg'
p1371
aS'i m a female'
p1372
aS'female'
p1373
aS'adrian'
p1374
aS'audrey'
p1375
aS'sounds good'
p1376
ag8
aS'female'
p1377
aS'okay'
p1378
aS'yes'
p1379
ag8
aS'monday tuesday wednesday thursday friday and sometimes saturday'
p1380
aS'sure'
p1381
aS'motive me to be vegan'
p1382
aS'female'
p1383
aS'haha yeah that s fine'
p1384
aS'female'
p1385
aS'i m doing shoulder workou today bruh'
p1386
ag8
aS'how many calories did i burn'
p1387
aS'yes'
p1388
aS'give or take it fluctuates quite a bit'
p1389
ag8
aS'how many calories should i eat in a day'
p1390
ag8
aS'female'
p1391
ag8
aS'sounds good'
p1392
aS'female'
p1393
aS'leigh'
p1394
ag8
aS'and i think i weigh around lb'
p1395
aS'tyler is my name'
p1396
aS'log mini donut'
p1397
aS'yes please'
p1398
aS'yes that sounds great'
p1399
aS'yes'
p1400
aS'female'
p1401
aS'i had eggs scrambled and a granola bar'
p1402
ag8
aS'taylor'
p1403
aS'sure'
p1404
aS'haha lbs'
p1405
ag8
aS'none'
p1406
aS'sure'
p1407
aS'brian'
p1408
aS'foot inches'
p1409
aS'male'
p1410
aS'monday tuesday wednesday friday saturday'
p1411
aS'yes'
p1412
aS'female'
p1413
aS'jos'
p1414
aS'i also walked for minutes'
p1415
ag8
aS'ok'
p1416
aS'yes'
p1417
aS'female'
p1418
ag8
aS'yes'
p1419
aS'goodnight'
p1420
aS'i just ate chips'
p1421
ag8
a.