(lp0
S'okay'
p1
aS'yep your are super pretty'
p2
aS'why did you put your number on musical ly that like'
p3
aS'how much does it cost'
p4
aS'yeah guess what my name is morgan too'
p5
aS'boring i had to do chores all day it sucks'
p6
aS'hi'
p7
aS'alright'
p8
aS'ok thanks for telling me'
p9
aS'hiii im a big fan'
p10
aS'i m vanessa and i love watching ur musicallys everyday'
p11
aS'hi morgan i m a huge fan and ilysm it would mean everything if you replied love you'
p12
aS'hey i m one of your music ly fans'
p13
aS'by the way my name is taylor'
p14
aS'how much is it'
p15
aS'omg never mind'
p16
aS'yeah'
p17
aS'hey morgan my name is jasmine and i love your musical lys so much'
p18
aS'yes omg hi'
p19
aS'awe good at disneyland'
p20
aS'sure'
p21
aS'yes'
p22
aS'good how was yours'
p23
aS'cute'
p24
aS'omg i m freaking out please tell me this is u'
p25
aS'ok'
p26
aS'u told me that'
p27
aS'hi'
p28
aS'i have a question'
p29
aS'is this morgan'
p30
aS'hey'
p31
aS'hello i m a big fan of you your so gorgeous'
p32
aS'good and yours'
p33
aS'hi morgan'
p34
aS'cool gonna give it a'
p35
aS'yeah it does'
p36
aS'your welcome you are seriously perfect and made my day'
p37
aS''
p38
ag38
aS'hi'
p39
ag38
aS'r u giving shout outs to the people that text u from musical ly or just for fun'
p40
aS'yea thanks'
p41
aS'hi'
p42
aS'what your favorite color'
p43
aS'hi im one of ur biggest fans i love the way u do ur music lys'
p44
aS'yes i m interested'
p45
aS'what s up'
p46
aS'i love your musical lys your so pretty'
p47
aS'love u'
p48
aS'hiii'
p49
aS'hi'
p50
aS'good and awwwe they are cute'
p51
aS'np'
p52
aS'did u post anything on ur snapchat story yet bc if u did i can t see it'
p53
aS'why doesn t it work'
p54
aS'ok'
p55
aS'hey morgan i love you so much i was wondering if u could send a picture of u also can u follow me on musical ly samantha and friends me on snapchat my snapchat is basketball thank you i love u so much'
p56
aS'hey morgan i m a huge fan of yours your musical lys are awesome and you re very beautiful it would mean the world to me if i got a reply back love you'
p57
aS'good'
p58
aS'how did u become famous on musical ly'
p59
aS'hey'
p60
aS'hey is this morgan i m a huge fan'
p61
aS'ok my name is sam'
p62
aS'yes please i would love a makeup kit but i don t have the money to buy one'
p63
aS'yes it does'
p64
aS'yup'
p65
aS'my day was good'
p66
aS'wrong number'
p67
aS'heyyy'
p68
aS'i hate u don t ever text this number again bitch'
p69
aS'is this really u please text me back please'
p70
aS'ok'
p71
aS'hey morgan i know that your probably getting a lot of text i just wanted to say that you are my favorite muser and yours soooo pretty i m a really big fan'
p72
aS'hi is this the muser'
p73
aS'good ig'
p74
aS'hi is this katherine'
p75
aS'ok'
p76
aS'hi morgan'
p77
aS'omg i love you morgan your literally perfect omg omg'
p78
aS'yes i am'
p79
aS'hey i was wondering could u follow me back on musical ly'
p80
aS'awww that s cute and my day is awesome'
p81
aS'can you now'
p82
aS'hi'
p83
aS'hello'
p84
aS'hey'
p85
aS'omg morgan ur so beautiful'
p86
aS'what s going on'
p87
aS'of course'
p88
aS'okay thank total much omggggg'
p89
aS'hey'
p90
aS'what makeup kit'
p91
aS'good'
p92
ag38
aS'my day was awesome thanks for asking'
p93
ag38
aS'please respond you are my idol you are so beautiful on the inside and out if you responded it would mean the world to me'
p94
aS'hello'
p95
aS'hi sounds cool to me'
p96
aS'that coffee u had look good'
p97
aS'hi'
p98
aS'omg i cant belive this right now'
p99
aS'yes i m interested'
p100
aS'my day is good thanks for asking'
p101
aS'hey'
p102
aS'is this really u'
p103
aS'who is this'
p104
aS'ur so gorgeous'
p105
aS'hi'
p106
aS'ok hello how are you omg'
p107
aS'your literally so pretty'
p108
aS'you look so pretty with blonde and black hair'
p109
aS'you are so amazing'
p110
aS'hiii im madison just wanted to say that i love your musicl lys so much and i think u r soooo pretty ur literally my goals okay love you'
p111
aS'ok your fake if you don t follow me'
p112
aS'hey morgan'
p113
aS'omg i love you so much'
p114
aS'yes'
p115
aS'hey omg you are so gorgeous it would mean so much if i got a text back maybe even a follow or a duet my user name is lyndsey kate'
p116
aS'hey'
p117
aS'yes'
p118
aS'ok'
p119
aS'hey'
p120
aS'oml i m dying is this actually you'
p121
aS'i am a big fan can you follow me on musical ly mileynicole'
p122
aS'yes how much'
p123
aS'hi'
p124
aS'my day is good'
p125
aS'btw ilysm and u are soo pretty'
p126
aS'ohhhh ok i m still like mind blown'
p127
aS'of course'
p128
aS'heyyyy'
p129
aS'lol yes it does'
p130
aS'can u follow me on musiclly pls my account is lys'
p131
aS'hey i love you so much and your so pretty and amazing'
p132
aS'good'
p133
aS'hi'
p134
aS'yes i am'
p135
aS'your welcome is this really you'
p136
aS'okay can you try to in a few hours'
p137
aS'yes i m interested'
p138
aS'if you see this message l i ve you please follow me'
p139
aS'duet on musically too mckenna eddyy'
p140
aS'of course'
p141
aS'hey'
p142
aS'hiii'
p143
aS'hi morgan your amazing ily'
p144
aS'mean np'
p145
aS'cool'
p146
aS'okay'
p147
aS'omg omg i m freaking out i have been watching your videos forever'
p148
aS'awe so cute and my day was great'
p149
aS'hey'
p150
aS'lol'
p151
aS'my user is iluvtuttlez for instagram'
p152
aS'hi is this morgan katherine from musical ly'
p153
aS'hey'
p154
aS'cool i was wandering do u live in kentucky'
p155
aS'hi'
p156
aS'it was good i had cheer practice'
p157
aS'this is fake'
p158
aS'k'
p159
aS'your welcome'
p160
aS'i feel like u don t want to follow me but that s fine'
p161
aS'are you sure would i would think you had an iphone'
p162
aS'k'
p163
aS'mine was good how was yours'
p164
aS'hey'
p165
aS'yea'
p166
aS'hi'
p167
aS'hey'
p168
aS'who is this'
p169
aS'hey ilysm'
p170
aS'yea'
p171
aS'my day was good'
p172
aS'yep'
p173
aS'np what s your favorite color'
p174
aS'your welcome please follow me mine music ly is savage brooklyn'
p175
aS'boring just been sitting at home'
p176
aS'cool i meant'
p177
aS'yup'
p178
aS'my day was ok was yours good'
p179
aS'hey'
p180
aS'yes'
p181
aS'please answer me'
p182
aS'can i ask a question'
p183
aS'can i be your best fan'
p184
aS'awe we are in the middle of moving'
p185
aS'really'
p186
aS'ok'
p187
aS'ok'
p188
aS'that looks good'
p189
aS'yeah thank you'
p190
aS'sounds cool'
p191
aS'hey morgan'
p192
aS'omg is this really morgan'
p193
aS'good'
p194
aS'yeah okay thanks'
p195
aS'your so gorgeous'
p196
aS'yeeeeeesss'
p197
aS'i m sorry everyone is hating on you proverbs a hateful person disguises himself with his speech and harbors deceit within when he speaks graciously don t believe him for there are seven abominations in his heart though his hatred is concealed by deception his evil will be revealed in the assembly you inspire me'
p198
aS'no'
p199
aS'sure how much does it cost'
p200
ag38
aS'i ll think about it'
p201
aS'hi oml my names makayla and ur so pretty and really good at ur musica lys'
p202
aS'hi'
p203
aS'mine was good you'
p204
aS'yes yes'
p205
aS'i love you'
p206
aS'awesome'
p207
aS'awww so cute'
p208
aS'can u plz follow me on musically'
p209
aS'omg yes i m crying so much right now your my inspiration'
p210
aS'heyyy'
p211
aS'hi morgan i love you so much you make my day please answer it will mean the whole world to me and if you answer can we please friends'
p212
ag38
aS'can you say hi to me'
p213
aS'ya'
p214
aS'you are so pretty'
p215
aS'ur beautiful'
p216
aS'good how was yours'
p217
aS'i lov ur musically s you re so good'
p218
aS'omg hi'
p219
aS'what type of phone do you have'
p220
aS'my user is bxby syddd'
p221
aS'can you follow me'
p222
aS'ya i m your number one fan'
p223
aS'then follow me'
p224
aS'yah it was so good'
p225
aS'hi'
p226
aS'cool'
p227
aS'i will like them'
p228
aS'ok'
p229
aS'hi i m such a big fan'
p230
aS'hey i m one of your fans and i like your musically'
p231
aS'because i was really scared you were hacked'
p232
ag38
aS'yes please how much is it ruben'
p233
aS'ok'
p234
aS'good'
p235
aS'sorry for being mean'
p236
ag38
aS'i am not interested but thanks for offering'
p237
aS'i want some'
p238
aS'i love you soo much'
p239
aS'good'
p240
aS'omg hey i love your musicllys so much'
p241
aS'ummm ya how much is it'
p242
aS'what s good'
p243
aS'heey can you plss bff me'
p244
aS'hey'
p245
aS'omg i love you so much plz text me back'
p246
aS'omg morgan i m such a huge fan i m so happy u let fans have your u make me so happy ily so much and your so pretty'
p247
aS'hi this is leah i m i watch ur music lys'
p248
aS'good'
p249
aS'good thanks'
p250
aS'yes i m interested'
p251
aS'good'
p252
aS'yeah'
p253
aS'is this actually you'
p254
aS'so cute'
p255
aS'it was good ilysm'
p256
aS'yes'
p257
aS'great how was yours and how cuteeee'
p258
aS'no thank you but thanks for the offer'
p259
aS'yeah'
p260
aS'yes yes yes'
p261
aS'good'
p262
aS'hi'
p263
aS'hey'
p264
aS'i mean your a person and i m a person so i don t want to make it seem like i don t care what you have to say i just want to get to know you'
p265
aS'yes please'
p266
aS'is this morgan katherine'
p267
aS'hi this is janaiya i love ur musicallys i watch urs to get better at mine'
p268
aS'yea i am interested i would love that'
p269
aS'what do u want to be when ur older'
p270
aS'omg how do i get it'
p271
aS'yes and i just wanna tell you your so pretty'
p272
aS'ok'
p273
aS'your gorgeous'
p274
aS'yup'
p275
aS'ith me it sucks being a nobody on musically but you are just amazing'
p276
aS'yes'
p277
aS'hi'
p278
aS'hi'
p279
aS'that s sounds amazing and yes i m very interested in it'
p280
aS'but i still don t think this is a real number'
p281
aS'hey is this morgan katherine from musically'
p282
aS'yea'
p283
aS'yes'
p284
aS'your'
p285
aS'ok'
p286
aS'yea'
p287
ag38
aS'is this a hacker'
p288
aS'my day was good'
p289
aS'answerd'
p290
aS'r u there'
p291
aS'good'
p292
aS'hey morgan i m a big fan of you and your musical lys i just wanted to say that and have a great summer'
p293
aS'i want be like you'
p294
aS'can you follow me on musical ly'
p295
aS'yeah great omg ilysm'
p296
aS'yes'
p297
aS'yea'
p298
aS'good yours'
p299
ag38
aS'i got a text from u saying hey this is morgan katherine thanks for messaging me i will be texting you from should i text u from this or the on i already texted u on'
p300
aS'borin boyfriends grounded what kind of animals'
p301
aS'awesome'
p302
aS'ok'
p303
aS'so'
p304
aS'is this morgan katherine'
p305
aS'it s was good'
p306
aS'can you please bff me on music ly or spam'
p307
aS'good'
p308
aS'how are you today'
p309
aS'if u ever get the chance to see this can u plz bff me on musically my username is tammy lover btw i love your musically u are pretty and ilysm'
p310
aS'ok so ur sixteen'
p311
aS'anytime ily'
p312
aS'good now that u sent this'
p313
aS'hi'
p314
aS'what time is it there'
p315
aS'and your welcome'
p316
aS'how this'
p317
aS'do you do calls'
p318
aS'and by the way i love ur musicals'
p319
aS'hi morgan'
p320
aS'good'
p321
aS'hello'
p322
aS'yes please how much'
p323
aS'quick question do u think u will ever come to north carolina'
p324
aS'it was great i had soccer tryouts this morning'
p325
aS'yeah'
p326
aS'your seriously so pretty'
p327
aS'yes it does'
p328
aS'is this really you'
p329
aS'love you morgan mytwin lol'
p330
aS'thank u so much'
p331
aS'i liked it'
p332
aS'no problem'
p333
aS'morgan idk if ull see this but ur one of my favourite musers and'
p334
aS'and my day was good'
p335
aS'your my most favorite muser ever'
p336
aS'how old are u'
p337
aS'idk what to say'
p338
aS'yes it does'
p339
aS'hey morgan'
p340
aS'my day was good'
p341
aS'please follow me faboyd'
p342
aS'yes'
p343
aS'hi morgan'
p344
aS'ok lol'
p345
aS'good'
p346
aS'i cant have coffee'
p347
aS'hey'
p348
aS'hey'
p349
aS'yes how much would it cost'
p350
aS'okay can you bff me my name is chloe'
p351
aS'can i text with you right now'
p352
aS'hey'
p353
aS'yass'
p354
aS'your welcome'
p355
aS'yes omg i love you so much'
p356
aS'yeah that s cool'
p357
aS'yes i m very interested'
p358
aS'can you plz check out some of my musiclys and tell me what you think cause i m trying to get feature and be like you and babyariel'
p359
aS'your so welcome ily'
p360
aS'come on pleaseeeeeeee'
p361
aS'thank you i love you so much'
p362
aS'good'
p363
aS'lol'
p364
aS'good u'
p365
aS'good'
p366
aS'lol u text back fast'
p367
aS'it s so cute it was good'
p368
aS'hey'
p369
aS'hey can you follow me'
p370
aS'can we be freinds'
p371
aS'hi i m your biggest fan'
p372
aS'okay'
p373
aS'omg ur so amazing'
p374
aS'ily so much'
p375
aS'please answer it would mean the world to me your so pretty too'
p376
aS'good'
p377
aS'hello'
p378
aS'okay'
p379
aS'good i have the same day'
p380
aS'hi i am such a huge fan and i think your really beautiful and nice and i love ur musical lys'
p381
aS'is this morgankatherine on musical ly'
p382
aS'plz follow me on musical ly'
p383
aS'thanks glad to know going to go watch it'
p384
aS'very cool'
p385
aS'aww that s cute and my day was good'
p386
aS'yes i would love to get it'
p387
aS'ok thank you'
p388
aS'also thad not my number'
p389
aS'okay'
p390
aS'hello'
p391
aS'forrest'
p392
aS'yes and how old r u'
p393
aS'aww now i want starbucks'
p394
aS'hi i love you'
p395
aS'hey'
p396
aS'you are hot katherine'
p397
aS'hi'
p398
aS'when is your birthday'
p399
aS'hiiii'
p400
aS'yea is this really you though'
p401
aS'how much is it'
p402
aS'awe that s such a cute hamster or a guinea pig i don t really studie that stuff'
p403
aS'good how was yours'
p404
aS'ok'
p405
aS'hi'
p406
ag38
aS'what do you get from starbucks'
p407
aS'good'
p408
aS'good morning'
p409
aS'you re so welcome'
p410
aS'where do i get it and how much is it'
p411
aS'awe it s so cute my day was great'
p412
aS'i want starbucks'
p413
aS'ok'
p414
aS'yes i am'
p415
aS'good wbu'
p416
aS'good night i love you'
p417
aS'are you homeschooled'
p418
aS'hey'
p419
aS'is it u fr omgs i am a fan of your and your so gorgeous'
p420
aS'i love you so much you inspire almost all of my musicallys cause you are so talented and i want to be just like you not only are you talented but you are also beautiful i know everyone says you look better with brown hair but you look gorgeous with your natural hair please notice me'
p421
aS'plz plz plz'
p422
aS'can u please bff me'
p423
aS'heyy'
p424
aS'that s good'
p425
aS'th u r th ut t t'
p426
aS'hi'
p427
aS'good'
p428
aS'i can t have music ly but i do have funimate i love your vids'
p429
aS'yep sounds cool'
p430
aS'who the hell are u'
p431
aS'your welcome'
p432
aS'i love your musically and you re gorgeous'
p433
aS'how are you'
p434
aS'it will show up as madi is bae'
p435
aS'can you post the video on musical ly explaining everything i m kind of eager'
p436
aS'omg yes please'
p437
aS'by the way my names aaron'
p438
aS'hey i love your musical lys wish you would check out mine torii webster'
p439
aS'gtg'
p440
aS'tbh your very pretty and goals'
p441
aS'can u spam my musical ly it s crissty xoxo'
p442
aS'so cute'
p443
aS'can u answer my calls'
p444
aS'hey'
p445
aS'can t do wat'
p446
aS'yes how much is cost'
p447
aS'do you think that you could shout me out on musically or do a duet with me it would mean so much'
p448
aS'my'
p449
aS'good how was yours'
p450
aS'yes i d be incredibly interested'
p451
aS'your right'
p452
aS'good oh my god i love you'
p453
aS'good'
p454
ag38
aS'why are you texting your fans'
p455
aS'good morning my favorite musically star'
p456
aS'good i am in orlando what are you holding'
p457
aS'awe'
p458
aS'i love watching your musicallys'
p459
aS'hi'
p460
aS'ur the hacker'
p461
aS'morgan ilysm you re gorgeous and such an inspiration for so many girls'
p462
aS'hello'
p463
aS'hi is this morgankatherine on musical ly'
p464
aS'cool i m a huge fan'
p465
aS'yes'
p466
aS'yeah please do'
p467
aS'and blonde hair'
p468
aS'yep thanks i love you so much'
p469
ag38
aS'hey'
p470
aS'ya'
p471
aS'btw luv you'
p472
aS'yeah that s cool i love seeing your musicallys'
p473
aS'hi morgan'
p474
aS'it was awesome'
p475
aS'can you call me'
p476
aS'it really does lol'
p477
aS'can i get a bff and a shout out please'
p478
aS'how much'
p479
aS'good'
p480
aS'did you get hacked or is this really morgan'
p481
aS'you are so beautiful'
p482
aS'good how was its'
p483
aS'hey'
p484
aS'can you follow me gymcutie'
p485
aS'it was good'
p486
aS'omg of course'
p487
aS'so pretty'
p488
aS'heey'
p489
aS'my day was great i went swimming'
p490
ag38
aS'when u get this i wanted to say that your awsone and i really wanted to know your favorite emoji'
p491
aS'good and yours'
p492
aS'do i text that mum'
p493
aS'where do u live'
p494
aS'i am your boggest fan ever'
p495
aS'how much is it'
p496
aS'this is not the really morgan'
p497
aS'can you send a photo of yourself w a fishy face or something'
p498
aS'hi i follow your musical ly i m a fan of yours'
p499
aS'good'
p500
aS'hey'
p501
aS'so pretty'
p502
aS'hi'
p503
aS'is this morgan katherine'
p504
aS'i don t care'
p505
aS'but anyways i love you so much keep being you'
p506
aS'not good my dog died me and cuzin crashed into my car'
p507
aS'how old are you'
p508
aS'hhhhh'
p509
aS'oh so cute my day was good'
p510
aS'good how was yours'
p511
aS'your welcome i love you so much'
p512
aS'hi is this morgan katherine from musical ly if it is hiii i m one of your fans'
p513
aS'oh ok thanks well texting you tomorrow morning cause i got to go to bed but i have one question'
p514
aS'no sorry i don t wear makeup'
p515
aS'fr tho'
p516
aS'good hbu'
p517
aS'could you please bff me it would mean so much'
p518
aS'hi oh my gosh i love you so much and you re musicallys'
p519
aS'my day was good'
p520
aS'okay thanks'
p521
aS'cool'
p522
aS'gorgeous'
p523
aS'i love you i wish i was as pretty as u as good at musical lys as you'
p524
aS'hey is this morgan'
p525
aS'where did you get most of it'
p526
aS'hey is this morgan on musicaly'
p527
aS'yes i m interested'
p528
aS'hey'
p529
aS'okay and yes i am interested'
p530
aS'hey'
p531
aS'hi'
p532
aS'thankss'
p533
aS'hey is this morgankatherine im fantastic'
p534
aS'can u do me a favor can u bff me on musical ly its roseytt'
p535
aS'good those are adorable animals'
p536
aS'hey ilysm'
p537
aS'hey'
p538
aS'my day was really good'
p539
ag38
aS'good'
p540
aS'thanks'
p541
aS'okay'
p542
aS'yes but can i plz have a bff'
p543
aS'yo'
p544
aS'yea i m interested'
p545
aS'hi'
p546
ag38
aS'hi i really like your musical lys you and loren gray are my favorite'
p547
aS'im interested'
p548
aS'omg i love u soo muchh'
p549
aS'yeah awesome'
p550
aS'good'
p551
aS'good'
p552
aS'hi i m a fan on music ly'
p553
aS'hi do u have any updates'
p554
aS'okay'
p555
aS'okay'
p556
aS'or give a shouout please'
p557
aS'hi'
p558
aS'ok'
p559
aS'what r u studying for'
p560
aS'aww and my day was good i m at the nail shop'
p561
aS'yeah r u texting me or everybody right now'
p562
aS'but i believe it'
p563
aS'hi'
p564
aS'thxxxxxx'
p565
aS'i am interested'
p566
aS'are u sure'
p567
aS'is it really you'
p568
aS'hi i m a huge fan can u please add me on snapchat sophies'
p569
aS'omg so you are years old is this really you morgan'
p570
aS'hello i m a huge fan'
p571
aS'you ilysm'
p572
aS'i love you soo muchh'
p573
aS'yeah it s cool'
p574
aS'yeah'
p575
aS'please don t text me'
p576
aS'who s this'
p577
aS'hi'
p578
aS'cool and agreed'
p579
aS'hii'
p580
aS'what song'
p581
aS'ok'
p582
aS'good'
p583
aS'thank you so much for replying'
p584
aS'ok'
p585
aS'good how was yours'
p586
aS'hi i m a big fan can we be internet friends'
p587
aS'ok'
p588
aS'love'
p589
aS'u r welcome honestly i don t know why anyone wouldn t'
p590
aS'mine was great'
p591
aS'how much is it'
p592
aS'very cool'
p593
aS'yeah of course that would be great'
p594
aS'lit'
p595
aS'of course do u have an iphone'
p596
aS'oh ok'
p597
aS'that sounds really cool'
p598
aS's s'
p599
aS'thx you too'
p600
aS'please answer i love you so much'
p601
aS'good'
p602
aS'really how about yours'
p603
aS'block and delete'
p604
aS'you re so good at musically and you re so pretty'
p605
aS'u'
p606
aS'omg is this really you'
p607
aS'yeah'
p608
aS'i m a big fan'
p609
aS'my username is myladove'
p610
aS'yes i am'
p611
aS'this is me'
p612
aS'yes how old are u'
p613
aS'people say u are a model'
p614
aS'wyd'
p615
aS'good'
p616
aS'ill be the first to like'
p617
aS'hello'
p618
aS'so cute mine was good'
p619
aS'no shit'
p620
aS'i didn t do anything today'
p621
aS'megan'
p622
aS'yeah it sounds cool'
p623
aS'ok well can u please follow me'
p624
aS'yes sounds great'
p625
aS'hello'
p626
aS'btw me musical ly is princess t'
p627
aS'yes'
p628
aS'heck yes im interested'
p629
aS'ok'
p630
aS'could u make me ur bff'
p631
aS'your really good at musical ly'
p632
aS'thank u love u to your so nice'
p633
aS'yeah'
p634
aS'hey i just want to say that you re so gorgeous and i love your musical lys i wish i could be like you'
p635
aS'will you please follow me on music ly at kaylamadison please'
p636
ag38
aS'what if i call you'
p637
aS'how are you'
p638
aS'you are so pretty and your musical ly s are awesomee'
p639
aS'your some sort of robot because your not answering any of my question'
p640
aS'good'
p641
aS'hello i m a big fan'
p642
aS'yes absolutley how do i get involved'
p643
aS'greatttttt'
p644
aS'good'
p645
aS'she would not put out her number'
p646
aS'morgan hi'
p647
aS'hey'
p648
aS'good'
p649
aS'follow me bellarusso'
p650
aS'ok ily'
p651
aS'lot of people to answer so it means alot that your talking to me rn and if u dont have time to check out my channel i completely understand'
p652
aS'good'
p653
aS'good thanks for asking'
p654
aS'ok'
p655
aS'why did you wanna leak your number to so many people'
p656
aS'awesome'
p657
aS'ur so beautiful'
p658
aS'send me a picture is this the real morgan katherine'
p659
aS'hey'
p660
aS'yassss that s great'
p661
aS'hello'
p662
aS'yes i am'
p663
aS'you re welcome i love you so much i want to meet you really bad'
p664
aS'good'
p665
aS'omg your perfect'
p666
aS'yes but how much would it cost'
p667
aS'yes how many times have u been featured'
p668
aS'good'
p669
aS'can i have a duet please'
p670
aS'good'
p671
aS'hi'
p672
aS'it was good'
p673
aS'your so gorgeous'
p674
aS'hey morgan'
p675
aS'yay you answered but my day was good'
p676
aS'ok lol'
p677
aS'yeah'
p678
aS'i am so happy'
p679
aS'hey morgan ilysm your musicallys slay and your so pretty'
p680
aS'can you give me a shout out plz and are you going to do a meat and greet anytime soon'
p681
aS'aww that most of been fun and good how been your day'
p682
aS'r u hacked'
p683
aS'your'
p684
aS'yea can i call you'
p685
aS'how does this work'
p686
aS'hi this is anna from arkansas just hangin around'
p687
aS'that s fun my day sucked tho'
p688
aS'yeah that s so awesome'
p689
aS'can we facetime'
p690
aS'how r u'
p691
aS'hi'
p692
aS'yes your so amazing and talented'
p693
aS'how much is it'
p694
aS'omg yes a new makeup kit ur having sure i m really interested but i wanna know the price'
p695
aS'hi big fan'
p696
aS'am'
p697
aS'hey i m one of your biggest fans on musically so hi'
p698
aS'really that s really awesome'
p699
aS'cool i m almost'
p700
aS'why that number'
p701
aS'now i want coffee'
p702
aS'will u do a live ly'
p703
aS'is this really you'
p704
aS'good'
p705
aS'i like them was there one or two'
p706
aS'amazing we went school shopping how fun'
p707
aS'good and it s so cute'
p708
aS'did u wanna text ur fans'
p709
aS'omg i can t believe it s really u i m so happy u gave ur number out i ve just started following u and ur so amazing'
p710
aS'how are you'
p711
aS'duet with me plz when u have time'
p712
aS'hey so can you do a duet with me plz'
p713
aS'aww they are cute and mine was great hby'
p714
aS'yasssss'
p715
aS'hi morgan hope this is the right plz txt back my name is bren i live in louisiana i am lov ur musical lys ur sister is awsome so r u anyway thx o and plz follow me on musical ly i am dd a'
p716
aS'yes i am'
p717
aS'prettu'
p718
aS'i love your musicallys and you are super gorgeous i wish i could look like youu'
p719
aS'yea that sounds really cool thank you'
p720
aS'yes please'
p721
aS'okay'
p722
aS'good'
p723
aS'good for you'
p724
aS'hi'
p725
aS'good i went swimming'
p726
aS'ok'
p727
aS'heyyyy you are such an amazing muser i can t believe i have your number can you please follow me on musically allycatt or fan mee ily sm'
p728
aS'can u do a huge favor follow me it would mean the world'
p729
aS'hey omg i love your musical ly'
p730
aS'good thanks for asking'
p731
aS'great'
p732
aS'preset good i m in austin playing golf'
p733
aS'good how was urs'
p734
aS'awwww my day was good except i finished my favorite netflix series so i was sad'
p735
aS'hi'
p736
aS'hey'
p737
aS'ok sorry'
p738
aS'hi'
p739
aS'good'
p740
aS'good'
p741
aS'sounds really cool'
p742
aS'i wanna meat you'
p743
aS'my day was good'
p744
aS'hi love your musical lys'
p745
aS'yeah cool'
p746
aS'pretty good'
p747
aS'what you doin'
p748
aS'good and aww did u get one'
p749
aS'good yours'
p750
aS'yesss it does'
p751
aS'ok'
p752
aS'yeah'
p753
aS'good hbu'
p754
ag38
aS'no problem your an amazing person u deserve support'
p755
aS'hey morgan you are such a inspiration to me and i love every single one of your musical lys it would make my night if you text back thanks so much love youu'
p756
aS'omg it is you this is so crazy i love your musical lys and your so beautiful'
p757
aS'hey i really love you but is this really you or were you hacked bc i m pretty sure you were hacked but ya'
p758
aS'yeaaa'
p759
aS'hehe morgan'
p760
aS'yea'
p761
aS'yessssssss'
p762
aS'what who is this'
p763
aS'good'
p764
aS'thanks responding made my day'
p765
aS'heh'
p766
aS'yeah'
p767
aS'and good'
p768
aS'are you a robot'
p769
aS'you re so inspirational and i look up to you as a role model i m literally crying'
p770
aS'hi i love you'
p771
aS'hi'
p772
aS'your musical lys are goals'
p773
aS'hey im a big fan'
p774
aS'good hub'
p775
aS'my day was ok aww so cute are you getting any pets'
p776
aS'call me too prove it'
p777
aS'ohhh'
p778
ag38
aS'hi it was good how about'
p779
aS'okay can we facetime'
p780
aS'adorable'
p781
aS'really'
p782
aS'hii i am your biggest fan ilysm'
p783
aS'omg i am your biggest fan i hope u reply back i have pics of u on my wall not like stalker i have a wall of my favorite music ly people and u are one of them but i think your really pretty and i really really hope u rely back and my music ly accounts are oliviag or oliviag i love u so much'
p784
ag38
aS'ok'
p785
aS'is this your personal number'
p786
aS'u inspire me to do musicallys'
p787
aS'sorry what at camp'
p788
aS'yes it sounds amazing'
p789
aS'hello is this morgan'
p790
aS'hi'
p791
aS'great how about you'
p792
aS'hi morgan ilysmmm'
p793
aS'hey'
p794
aS'hello'
p795
aS'hey morgan'
p796
aS'hey i m such a big fan can i get a bff on musical ly pls devon'
p797
aS'aw np you kinda make me feel bad bc ur so much prettier than me haha'
p798
aS'can i ask a question'
p799
aS'omg your so beautiful'
p800
ag38
aS'yes'
p801
aS'so what s up'
p802
aS'hello'
p803
aS'yes please'
p804
aS'yes sounds cool'
p805
aS'who s this'
p806
aS'omg hey'
p807
aS'yes'
p808
aS'your pretty'
p809
aS'this'
p810
aS'hi i know you probably got other people to text but i m nyaisha and i am a really really really big fan'
p811
aS'ya where from'
p812
aS'yes'
p813
aS'omg yes how much money is it'
p814
aS'yes thank you'
p815
aS'is that your daily makeup'
p816
aS'yup'
p817
aS'is this really you'
p818
aS'yes in interestedddd'
p819
aS'so'
p820
aS'this is weird but uhm hi'
p821
ag38
aS'omg you are so pretty and you are a great role model to me and i really love your musicallys and you re just the best'
p822
aS'yea totally'
p823
aS'yeah thanks'
p824
aS'hey is this morgankathrine'
p825
aS'yes pls'
p826
aS'ya'
p827
aS'i really like your black hair too btw'
p828
aS'ok'
p829
aS'yes'
p830
aS'yes'
p831
aS'hey morgan my name is chloe you are so pretty and great at music ly you are so inspiring because you be your self in the videos i love you'
p832
aS'hi'
p833
aS'ok thx anyway'
p834
aS'it was good'
p835
ag38
aS'it s really good to'
p836
aS'awww and good thnx i love animals'
p837
aS'good'
p838
aS'please'
p839
aS'yes it sounds cool'
p840
aS'nice'
p841
aS'not good but cute'
p842
aS'yea sounds great'
p843
aS'yips'
p844
aS'plz answer me ilysfm'
p845
aS'duet plz'
p846
aS'sup'
p847
aS'what are you doing now'
p848
aS'sounds good thanks'
p849
aS'yes how much would it be'
p850
aS'you answered back'
p851
aS'yes i m interested'
p852
aS'good you possibly follow me'
p853
aS'yeah'
p854
aS'hi omg i love you so much'
p855
aS'you re fake'
p856
aS'i saw'
p857
aS'hi'
p858
aS'how much'
p859
aS'this isn t real'
p860
aS'can you make a duet with me'
p861
aS'hiiiii'
p862
aS'awesome i ve had a great day thx for asking'
p863
aS'omg heeey im a really big fan and i understand u probably have tons of messages rn but i just wanted to say that ilysm and your amazing at musically and sooo pretty and lol since ur famous im just gonna wait and i have im so glad u have a crown u definitely deserve it and ur eyes are soo pretty and i want to apologize for the long text and sorry if i bothered u but lysm and ur a great muser ur basically perfect but yea sry for the long paragraph'
p864
aS'hi'
p865
aS'hey is this morgan'
p866
aS'hi this is kayla your so pretty i have extensions like u and i don t know what people would think can you help me'
p867
aS'yay can t wait to see them'
p868
aS'good thanks for asking'
p869
aS'yay'
p870
aS'yes'
p871
aS'hello'
p872
aS'good what about you'
p873
aS'you re so perfect'
p874
aS'hiya there you re so pretty and amazing and i love you'
p875
aS'good'
p876
aS'yes it sounds good'
p877
aS'ok'
p878
aS'hey'
p879
aS'my day was good'
p880
aS'wyd'
p881
aS'really'
p882
aS'how much'
p883
aS'anytime'
p884
aS'yea i love you so much'
p885
aS'hi it and that would be great and i was also wondering if you could bff me'
p886
aS'omg hi'
p887
aS'are u a scam because i think it s a scam'
p888
aS'how was your day so far'
p889
aS'ok great thanks'
p890
aS'morgan'
p891
ag38
aS'can i call u'
p892
aS'yes please'
p893
aS'yes i am interested'
p894
aS'good'
p895
aS'hey katherine it s dawson i love watching your musical lys'
p896
aS'cool thx'
p897
aS'hellokittyminions'
p898
aS'hi'
p899
aS'good hbu'
p900
aS'yeah shore how much'
p901
aS'hi'
p902
aS'awwe u should look at a bearded dragon i have one'
p903
aS'okay i ll like it for sure ily'
p904
aS'would you follow me'
p905
aS'u are awesome'
p906
aS'is this real morgan from musical ly'
p907
aS'yay'
p908
aS'good how was yours'
p909
aS'lol'
p910
aS'hi'
p911
aS'wyd'
p912
aS'sorry morgan my friend said ur hacked but i know ur not sorry i hope u forgive me because i love u'
p913
aS'ok'
p914
aS'so sweet and my day was good have fun'
p915
ag38
aS'why are you so cute'
p916
aS'hi'
p917
aS'my day was fine how was yours'
p918
aS'ilysm'
p919
aS'my day was good i had a tumbling class and did my back handspring'
p920
aS'call me'
p921
aS'i love you'
p922
aS'yes'
p923
aS'your awesome'
p924
aS'good i m in nashville at the ole opry'
p925
aS'ilyyyy can you pleaseeee follow me on musically your my inspiration'
p926
aS'who is this'
p927
aS'im about to cry'
p928
aS'hey i love your musically s'
p929
aS'hiiii is this morgan'
p930
aS'can you follow me on musically'
p931
aS'my day was good do you get a pet today'
p932
aS'yasss'
p933
aS'plz'
p934
aS'my day was ok my phone shattered though'
p935
aS'send vid saying hey julia'
p936
aS'i saw it'
p937
aS'you are my biggest idol'
p938
aS'music ly'
p939
aS'your musicallys are so good'
p940
aS'yeah that s sounds amazing thank you'
p941
aS'so i will support any time'
p942
aS'u are so pretty do not listen it the haters have a great day'
p943
aS'yeah'
p944
aS'yes'
p945
aS'good i went swimming'
p946
aS'good'
p947
aS'your such a role model to me and i hope that one day i can meet you your so pretty and seem super nice one of your biggest fans'
p948
aS'i already saw them and they are amazing'
p949
aS'good'
p950
aS'yeah how old are u'
p951
aS'it was great'
p952
aS'good what s your name'
p953
aS'hi'
p954
aS'good'
p955
aS'ok yay'
p956
aS'hi is this morgan katherine'
p957
aS'plzzzzzz'
p958
aS'who is this'
p959
aS'hey'
p960
aS'can u do a duet with me on musical ly brii'
p961
aS'good really good because i m talking to u'
p962
aS'hey morgan'
p963
aS'good morning morgan'
p964
ag38
aS'hi am ur fan'
p965
aS'great'
p966
aS'follow me and do a duet with me plz'
p967
aS'heyy'
p968
aS'sure'
p969
aS'hey i am like one of your biggest fans i love you so much please bff me on musically'
p970
aS'hey love your musically so much'
p971
aS'yes i am'
p972
aS'hey good morning morgan'
p973
ag38
aS'hey'
p974
aS'yes'
p975
aS'yeah that s cool thanks for replying'
p976
aS'good night'
p977
aS'hey'
p978
aS'yes'
p979
aS'can you follow me back on musical ly'
p980
ag38
aS'omg please text back you re awesome'
p981
aS'hey'
p982
aS'omg definitely'
p983
aS'yeah shout out'
p984
aS'my day was awesome'
p985
aS'morgan i love ur musicallys so much'
p986
aS'your my favourite'
p987
aS'good hbu'
p988
aS'sounds great'
p989
aS'good'
p990
aS'good'
p991
aS'kk'
p992
aS'wil u add me on sc'
p993
aS'sounds awesome your gorgeous'
p994
aS'hey i love your musicallys'
p995
aS'good'
p996
aS'ok'
p997
aS'yes'
p998
aS'how much is it'
p999
aS'hi'
p1000
aS'yes it does'
p1001
aS'i adore you'
p1002
aS'okay'
p1003
aS'k good'
p1004
aS'ok thank'
p1005
aS'omg hey i love your musical lys'
p1006
aS'good'
p1007
aS'great how was yours'
p1008
aS'is this morgan'
p1009
aS'lucky'
p1010
aS'hi morgan let me just tell u that ur are literally my inspiration'
p1011
aS'yes you are awesome'
p1012
aS'good wbu'
p1013
aS'good'
p1014
aS'that s cool'
p1015
aS'hey your my inspiration it would mean the world it you respond right'
p1016
aS'ya'
p1017
aS'alright everybody is freaking out in the comments so i just wanted to make sure'
p1018
aS'good i went swimming'
p1019
aS'that s good l ll talk to you later byeeee'
p1020
aS'is this morgan katherine'
p1021
aS'oh ok'
p1022
aS'yea'
p1023
aS'good'
p1024
aS'yah cool'
p1025
aS'yeah'
p1026
aS'i m one of your biggest fans my musicly is princess rlny'
p1027
aS'whaz up'
p1028
aS'hey'
p1029
aS'cool'
p1030
aS'hi i am a huge fan of yours'
p1031
aS'good how was yours'
p1032
aS'hey can u bff me alli elkins i love u'
p1033
aS'ok'
p1034
aS'morgan'
p1035
aS'ur so pretty too lol'
p1036
aS'cool good and yours'
p1037
aS'love that pic'
p1038
aS'yes i m very interested'
p1039
aS'day not dad opps'
p1040
aS'sounds great'
p1041
aS'yes'
p1042
aS'so do you morgan luv ya too'
p1043
aS'yes'
p1044
aS'good i traveled yesterday'
p1045
aS'hey i m a big fan'
p1046
ag38
aS'would you marry me just because i m a huge fan and you slay'
p1047
aS'it was good'
p1048
aS'kk'
p1049
aS'hey'
p1050
aS'hello i love u plz follow me on musically my name is linda and i m your biggest fan'
p1051
aS'i ll like it can u see it and follow me ansley faircloth'
p1052
aS'good'
p1053
aS'hi'
p1054
aS'yes thank u sooo very much'
p1055
aS'depending how much it is how can i check it out'
p1056
aS'is this morgan'
p1057
aS'bff me plz'
p1058
aS'i hear you'
p1059
aS'what s up'
p1060
aS'this is fake'
p1061
aS'gmmmmm'
p1062
aS'yeah'
p1063
aS'good'
p1064
aS'ok thanks and yeah that sounds cool and can you try to follow me on musically at hannahbarker you are one of my favorite musers btw my name is hannah and i m years old'
p1065
aS'text u later'
p1066
aS'omg you are my inspiration ilysm and i look up to you you mean so much to me and it would mean the world to me if you answered ily'
p1067
aS'good haha went to the mall'
p1068
aS'bye'
p1069
aS'hi katherine please text me back and one day i was really sick by a bloody nose maybe like days and i got on musically and i saw your page and i thought omg she is so pretty you made me laugh when you and your sister made musically please reply i will make my day and i am so happy that you got your braces'
p1070
aS'oh well'
p1071
aS'ok everyone in the comments is saying that this is hacked so do you think you can post a video saying everything to clarify'
p1072
aS'hi morgan but right now i am feeling very down with a lot it would really make my dad if you have made a follow back'
p1073
aS'awww and my day was really good what about yours'
p1074
aS'hello'
p1075
aS'hello'
p1076
aS'omg thank you so much i love u'
p1077
aS'ok'
p1078
aS'yup so what are you doing now'
p1079
aS'how is your phone hacked'
p1080
aS'yeah'
p1081
aS'awwwww'
p1082
aS'yes i am very i trested how much does it cost'
p1083
aS'good'
p1084
aS'ily'
p1085
aS'good'
p1086
aS'can u follow me on mussxaly crazzycookie plz if u want'
p1087
aS'so beautiful'
p1088
aS'cool'
p1089
aS'how much is it thought'
p1090
aS'hi morgan ilysm i hope to meet u one day'
p1091
aS'good i ll like them all'
p1092
aS'ya there'
p1093
aS'omg i m a huge fan of ur work ur so pretty and super cool and i love ur musical lys'
p1094
aS'awe you look so pretty'
p1095
aS'so pretty'
p1096
aS'it was good'
p1097
aS'good how was yours'
p1098
aS'ok i know'
p1099
aS'hey'
p1100
aS'who is this'
p1101
aS'omg hi your musical lys are amazing i love you so much'
p1102
aS'hi is this morgan'
p1103
aS'ya'
p1104
aS'i love you so much'
p1105
aS'ur the prettiest on music ly'
p1106
aS'what'
p1107
aS'good'
p1108
aS'how much is it going to be'
p1109
aS'younow'
p1110
aS'actually her'
p1111
aS'omg i love y u so much your so pretty'
p1112
aS'sup'
p1113
aS'heyy'
p1114
aS'where do u live'
p1115
aS'hi'
p1116
aS'pleaseeeeeeee'
p1117
aS'your welcome and i am not one of those crazy fan girls sorry if u think i am'
p1118
aS'omg is this really you'
p1119
aS'hi'
p1120
aS'hi this is a huge fan'
p1121
aS'it was good'
p1122
aS'are you sure'
p1123
aS'yes'
p1124
aS'good how was yours'
p1125
aS'no i am a boy'
p1126
ag38
aS'stop'
p1127
aS'thanks for the update i hope you have fun and i ve been good how are you you should totally post some pics of the animals on your snap story'
p1128
aS'hiii'
p1129
aS'good'
p1130
aS'hello'
p1131
aS'good how about yours'
p1132
aS'alright'
p1133
aS'aw thats cute mine was good i saw some cute animals to'
p1134
aS'can you do a duet with me plz'
p1135
aS'yea'
p1136
aS'hi'
p1137
aS'hey makayla parker'
p1138
aS'yay your my inspiration'
p1139
aS'really'
p1140
aS'plzzzzzz'
p1141
aS'that look soo good'
p1142
aS'hi'
p1143
aS'hey morgan imma fan obviously but i was just wondering is'
p1144
aS'how much'
p1145
aS'yes you are gorgeous'
p1146
aS'i am a big fan of u can u follow me pls'
p1147
aS'and beautiful'
p1148
aS'on musically'
p1149
aS'good'
p1150
aS'have you ever thought about singing you seem like you d be great at it'
p1151
aS'it was good can u do me a favor'
p1152
aS'fine thnxs for asking'
p1153
aS'haha have you been getting a lot of messages'
p1154
aS'i love you so much'
p1155
aS'do you like tacos'
p1156
aS'can u follow me or bff me'
p1157
aS'oh can u follow me on musically'
p1158
aS'who'
p1159
aS'your welcome i can t believe i am actually talking to you'
p1160
aS'good awww'
p1161
ag38
aS'did u like having braces'
p1162
aS'omg hey morgan i love your musical lys so much'
p1163
aS'it was great and awe so adorable'
p1164
aS'okay thanks'
p1165
aS'can you bff me on musically i would cry if you do you re such an amazing role model to me'
p1166
aS'hay'
p1167
aS'kk thnx so much'
p1168
aS'hi omg illy sm'
p1169
aS'omg ily musical lys'
p1170
aS'hi'
p1171
aS'hi'
p1172
aS'omg is this morgan katharine'
p1173
aS'ya i believe in you fan'
p1174
aS'my name is aundria'
p1175
aS'i would be interested but how much it is'
p1176
aS'i just want to say that you make me smile when i m sad cuz i have major depression social phobia and anxiety and when i m upset i watch you and you make me happy cuz your so confident'
p1177
aS'yes'
p1178
aS'btw i ve liked all of your musical lys and it meant a lot when you accepted my follow request on your private account'
p1179
aS'lol same but i am in summer soo why do you have to sduddy'
p1180
aS'hi'
p1181
aS'hey i love your musical lys they are amazing your also very pretty'
p1182
aS'hey'
p1183
aS'i like ur music lys'
p1184
aS'hi i just wanted to say that i love the musical lys you make and that you are gorgeous'
p1185
aS'my day was good how was your day'
p1186
aS'ur welcome'
p1187
aS'yahh'
p1188
aS'is this really u'
p1189
aS'hi i am a huge fan and hope you can follow me or do a duet with me love u'
p1190
aS'yes i am'
p1191
aS'hii yea sounds cool'
p1192
aS'morgan'
p1193
aS'aw it was great wbu'
p1194
aS'your really good at your musical lys i m inspired by like almost all of them'
p1195
aS'yeah'
p1196
aS'i think that ur are amazing pretty smart burr idyl and perfect'
p1197
aS'hey morgan'
p1198
aS'so is this your phone number'
p1199
aS'cool'
p1200
aS'it was great how are you doing'
p1201
aS'lucky and my day was fine'
p1202
aS'ima bout to cry omg i m so happy right now'
p1203
aS'hello'
p1204
aS'will u follow me please so that i can duet with u'
p1205
aS'omg you are texting me you are the best muser'
p1206
aS'hi'
p1207
aS'my day was great'
p1208
aS'lol right'
p1209
ag38
aS'hi'
p1210
aS'omg it s so cute and it was great what about you'
p1211
aS'so wyd'
p1212
aS'umm ur fake good bye'
p1213
aS'ok'
p1214
aS'anytime and thank you for sending me updates'
p1215
aS'it was good'
p1216
aS'i love all of your musical lys'
p1217
aS'okay'
p1218
aS'my day wasnt good but it doesn t matter'
p1219
aS'i m a fan'
p1220
aS'ok'
p1221
aS'how much is it going to cost'
p1222
aS'ok thanks'
p1223
aS'heyy is this morgan'
p1224
aS'morgan'
p1225
aS'yes it dose'
p1226
aS'hey'
p1227
aS'hi morgan'
p1228
aS'yes i am very interested'
p1229
aS'ok'
p1230
aS'good'
p1231
aS'hi i m one of your fans on musical ly'
p1232
aS'cuteeee my day want very good'
p1233
aS'test'
p1234
aS'can you follow me on musical ly'
p1235
aS'ur welcome'
p1236
aS'good thanks'
p1237
aS'okay'
p1238
aS'how much'
p1239
aS'my friend is not really sure though cause she experienced something like this'
p1240
aS'my day was good'
p1241
aS'ilsym'
p1242
aS'yes how much is it because i am only'
p1243
aS'cool'
p1244
aS'btw i ve liked all of your musical lys and it meant a lot when you accepted my follow request on your private account'
p1245
aS'hey can you go and check my musical lys out plz i love yours your my favorite muser your really pretty and awesome'
p1246
aS'ok'
p1247
aS'yes thank u soo very much'
p1248
aS'this is one of your fans plz text back'
p1249
aS'hi'
p1250
aS'oh ok'
p1251
aS'heyyyyy this is megan i m a huge fan please answer it would mean the world'
p1252
aS'hey i m a fan'
p1253
aS'how much is it but omg'
p1254
aS'hey'
p1255
aS'yep'
p1256
aS'omg yes i would love to'
p1257
aS'aww it s soo cute'
p1258
aS'thanks'
p1259
aS'love u sooo much please reply it would make my year complete'
p1260
aS'are you real or a computer'
p1261
aS'good'
p1262
aS'ok'
p1263
aS'what are you studying for in the summer'
p1264
aS'hey is is this morgan if it is i love you so much'
p1265
aS'hello'
p1266
aS'then post a real musical ly because people keep saying its a hacker'
p1267
aS'so u would be able to ft'
p1268
aS'yea'
p1269
aS'sorry that was my sister i m so glad you had a good day did you get the animal'
p1270
aS'good'
p1271
aS'who are you'
p1272
aS'great how was urs'
p1273
aS'good'
p1274
aS'good'
p1275
aS'trye'
p1276
aS'yes it does'
p1277
aS'cool i m super jealous of how gorgeous you are like for real'
p1278
aS'hey'
p1279
aS'yes very'
p1280
aS'my day is good wbu'
p1281
aS'hwy'
p1282
aS'omg hi morgan your beautiful and i love you'
p1283
aS'huge'
p1284
aS'hi'
p1285
aS'you should follow me marka'
p1286
aS'hi morgann'
p1287
aS'is this morgan'
p1288
aS'hi i m a huge fan if this is morgankatherine'
p1289
aS'good thanks'
p1290
aS'omg hi i love you so much'
p1291
aS'hi'
p1292
aS'good thanks for asking'
p1293
aS'hey is this morgan'
p1294
aS'could we maybe facetime sometime'
p1295
aS'good ig'
p1296
aS'np idk what to talk about but i wanna talk to u'
p1297
aS'cool'
p1298
aS'lmao'
p1299
aS'what are you doing'
p1300
aS'pretty good'
p1301
aS'yep sounds good'
p1302
aS'did u like the coffee'
p1303
aS'sounds great'
p1304
aS'omg im crying i love u so much kskskskkak'
p1305
aS'you are so pretty and awesome im a huge fan'
p1306
aS'yes'
p1307
ag38
aS'hi morgan'
p1308
aS'hey'
p1309
aS'yes how much'
p1310
aS'ok thanks'
p1311
aS'i m going to bed so ttyl'
p1312
aS'aww and good but i m sad'
p1313
aS'hey'
p1314
aS'pretty good'
p1315
aS'yes but does it cost money'
p1316
aS'hi'
p1317
aS'are you sure i thought you had an i phone'
p1318
aS'k'
p1319
aS'will u ever be doing any live ly'
p1320
aS'hey is this morgan katherine'
p1321
aS'hey'
p1322
aS'oh that is really an amazing opportunity yes i am interested that would be really nice'
p1323
aS'ya you are a great muser'
p1324
aS'that is so cool i love your musical ly videos you are just someone that is safe to follow that doesn t curse i just want to thank you'
p1325
aS'good just been hanging out'
p1326
aS'awe how cute i love animals and it was amazing thanks for asking'
p1327
aS'haii'
p1328
aS'wyd'
p1329
aS'what s your favorite drink at starbucks'
p1330
aS'is this katherine'
p1331
aS'yeah'
p1332
aS'omg heyyyyy'
p1333
aS'heyy'
p1334
aS'ok'
p1335
aS'no i m to young to wear makeup'
p1336
aS'your welcom'
p1337
aS'hi morgan katherine you are so pretty and i love your musical ly s so much can i have a shout out please thank you soooooo much'
p1338
aS'haha cool'
p1339
aS'is that petco and my day was fine how about yours'
p1340
aS'hi'
p1341
aS'hi'
p1342
aS'it s really awesome how you are texting your fans'
p1343
aS'wyd'
p1344
aS'hello'
p1345
aS'good wbu'
p1346
aS'hi you are so pretty and i follow you on musically'
p1347
aS'good i thought it was hacked ur so pretty'
p1348
aS'that s so cute my day is okay tho'
p1349
aS'what are ya up to today'
p1350
aS'yes'
p1351
aS'what'
p1352
aS'it was good and awh so cute'
p1353
aS'is this really u'
p1354
aS'yes when will i get it'
p1355
aS'it was amazing thanks for asking'
p1356
aS'hey i m a huge fan my name is saelin say lynn'
p1357
aS'what is this'
p1358
aS'this is not morgan kathrine'
p1359
aS'ok that is cool can you maybe bff me you are my fav muser'
p1360
aS'ur my fav'
p1361
aS'send me a picture for proof'
p1362
aS'you are very welcome'
p1363
aS'good you know the solo selfie app'
p1364
aS'send me a pic of u so i know ur real'
p1365
aS'no starbucks lol'
p1366
aS'aaaaawwww it s so cut my day was good'
p1367
aS'ok'
p1368
aS'who is this'
p1369
aS'hi katherine i m a big fan you re so pretty i was wondering is you can please bff me on musically i wanna do some duets with you so please can you please bff me lachikibabyyjenii please and thank you'
p1370
aS'show me a recent picture of right now'
p1371
aS'yeah this is prob fake'
p1372
aS'you are so are so perfect and pretty'
p1373
aS'omg i can t believe this'
p1374
aS'pls follow me'
p1375
aS'yes it does'
p1376
aS'can u bff me on musical ly pls'
p1377
aS'hi'
p1378
aS'i just got done swimming'
p1379
aS'okay'
p1380
aS'i m such a big fan'
p1381
aS'stop'
p1382
aS'good'
p1383
aS'yes'
p1384
aS'omg hi'
p1385
aS'yes i love you and ur so pretty'
p1386
aS'my day was good yours'
p1387
aS'it would be amazing if you answered'
p1388
aS'yes yes yes'
p1389
aS'hey my name is angelina jenkins my musically is linabina i love your musicallys and instagram pics your so pretty and i love your hair i read your musical ly and it said this was your number i hope you reply'
p1390
aS'huge fan'
p1391
aS'good kinda'
p1392
aS'hi'
p1393
aS'can u plzz follow me'
p1394
aS'hey'
p1395
aS'awww my day was good how about yours'
p1396
aS'hi morgan'
p1397
aS'hi'
p1398
aS'hi i m alysa and i love you videos so much your super pretty too i saw the music ly and was so happy that your going this i don t know where you live or what time it is sorry if it s early or late love you so much hope i get a text back'
p1399
aS'aww'
p1400
aS'i m your biggest fan i love youu so much your so pretty'
p1401
aS'ily so much'
p1402
aS'yes please'
p1403
aS'hi i love your musical lys'
p1404
aS'yep sounds great'
p1405
aS'can you follow me on social media'
p1406
aS'wyd'
p1407
aS'are you going to go live at all this weekend on lively'
p1408
aS'yes can t wait'
p1409
aS'good'
p1410
aS'good thanks'
p1411
aS'hi'
p1412
aS'who is this'
p1413
aS'toxicdemon'
p1414
aS'it was good how was ur day'
p1415
aS'is really good'
p1416
aS'yes'
p1417
aS'yes i m interested'
p1418
aS'good but i had cheer practice for hours'
p1419
aS'thsts good'
p1420
aS'ur so pretty'
p1421
aS'i didn t know what the number was when i texted it my friend did that on my phone so who are you or what do you do'
p1422
aS'mine was good'
p1423
aS'that s fine but is this a fake morgan'
p1424
ag38
aS'of course by the way your gorgeous'
p1425
aS'can u follow me on musically jordyn'
p1426
aS'yess'
p1427
aS'awww so cute it was good l m guessing yours was good'
p1428
aS'hi'
p1429
aS'hi'
p1430
aS'can u follow me on musical ly'
p1431
aS'it depends how much it s costs'
p1432
aS'hiii'
p1433
aS'hey morgan i am a huge fan love your musical ly that you make'
p1434
aS'hello my name is naomi i just wanted to say that i think you are really good at making musical ly s i think you are really pretty'
p1435
aS'ur so pretty'
p1436
aS'i would like to get it'
p1437
aS'yes i d love that'
p1438
ag38
aS'looks good where do you live'
p1439
aS'ilysm'
p1440
aS'good you'
p1441
aS'no who tf is morgan'
p1442
aS'i hope so too because i have watched you since you first started social media and it was so cool watching you get more fans and likes'
p1443
aS'ok thx'
p1444
ag38
aS'good and yours'
p1445
aS'ya'
p1446
aS'good thank you and you'
p1447
aS'hey morgan i am a huge fan love your musical ly that you make'
p1448
aS'my day was great'
p1449
aS'omg i freaking love you and your musical lys i m a girl btw'
p1450
aS'omg you texted me i love you'
p1451
aS'my day is going pretty good just rockin out at six flags'
p1452
aS'hi'
p1453
aS'it was good thanks for asking i m on a road trip right now'
p1454
aS'i have a question who do u like loren gray or jacob sartorius'
p1455
aS'studying for what'
p1456
aS'is this really her'
p1457
aS'yeah'
p1458
aS'is this really your phone number i haven t been following your for long but you ve got really pretty hair lol also you look really good without braces i m mea'
p1459
aS'and who are you trying to get a hold of'
p1460
aS'is this morgan from musically if you are i love watching your videos you re so pretty your like one of mine inspiration i would love if you would bff me on musically if not it s totally cool'
p1461
aS'mine was great and they are so cute'
p1462
aS'yeah i guess so'
p1463
aS'how do you get so famous on music ly i try so much'
p1464
aS'who is this'
p1465
aS'hi i think you are so kind for giving out your number like no one ever done that'
p1466
aS'good how ab u'
p1467
aS'pretty good i love ginny pigs'
p1468
aS'lol true'
p1469
aS'good'
p1470
aS'can you bff me oliviamorn i m friends with jackson kreicoch and it would be so cool if i could tell him about this'
p1471
aS'ok'
p1472
aS'yay'
p1473
aS'stop it you hacked morgan'
p1474
aS'umm who are u cause you ve been texting me'
p1475
aS'okay well i was wondering if we can do a duet in musically'
p1476
aS'yes that s a really cool idea i m interested'
p1477
aS'ok'
p1478
aS'i am doing good'
p1479
aS'yayyyyy'
p1480
aS'i like ur music lys'
p1481
aS'can u say hi plz'
p1482
aS'wassup'
p1483
aS'hi did you read this message'
p1484
aS'want to facetime or call'
p1485
aS'it was good thanks for being an inspiration'
p1486
aS'oh ok i get it now'
p1487
aS'omg'
p1488
aS'who is this'
p1489
aS'hey i m kaijuan shivers one of your friends'
p1490
aS'hello'
p1491
aS'it s was good today my birthday btw'
p1492
aS'omg yessss it does'
p1493
aS'how much is it'
p1494
aS'i saw'
p1495
aS'good hbu'
p1496
aS'ok i figured i just checked your snapchat'
p1497
aS'hello'
p1498
aS'that s cool'
p1499
aS'yea'
p1500
aS'yes'
p1501
aS'hi morgan i love you so much my musical ly is ryhort i m not asking you to follow me i just wanted u to know who i was by the way your teeth are perfect and so are u are you a model'
p1502
aS'heyyy you re so gorgeous ilyy'
p1503
aS'is that true'
p1504
aS'how s your day going'
p1505
aS'awwww so cute my day was good'
p1506
aS'actually my day was very good'
p1507
aS'why do you keep saying that'
p1508
aS'yes i am very interested'
p1509
aS'yes please'
p1510
aS'good thank u'
p1511
aS'omg i love you'
p1512
aS'luckyyy'
p1513
aS'my username is kaitlyn morales'
p1514
aS'pretty good yours'
p1515
aS'aaawww so cute my day was wonderful i just got back from seeing the beauty and the beast how was yours'
p1516
aS'good'
p1517
aS'my day was great but i be to go to the dentist but everything good'
p1518
aS'ohhh that s so cool well i just wanted to say that you re really pretty and i love you can you follow me on musically marcieee it would mean the world to me'
p1519
aS'good'
p1520
aS'hey i love you so much i am a fan of yours on musical ly'
p1521
aS'good'
p1522
aS'what kind is that'
p1523
aS'that looks screenshot'
p1524
aS'hey morgan i love you so much and i added you on snapchat you are so beautiful it isn t fair i love your makeup'
p1525
aS'yes'
p1526
aS'yes it does'
p1527
aS'i live in fayetteville ar if u could go there for a meet and greet that would be awesome'
p1528
aS'cool'
p1529
aS'yes i m interested'
p1530
aS'haha'
p1531
aS'that would be awesome i wanted to let u know that ur an amazing person presley'
p1532
aS'but i love you morgan your my inspiration'
p1533
aS'ik i liked them all'
p1534
aS'good went to the beach'
p1535
aS'ya'
p1536
aS'hey and okay cool'
p1537
aS'hi omg ily'
p1538
aS'okay'
p1539
aS'good how was yours ps that animal is so cute'
p1540
aS'yah thx i think your amazing your so pretty'
p1541
aS'good'
p1542
aS'your so pretty'
p1543
aS'yeah go for it'
p1544
aS'oh my goodness i can t believe you leaked your number and you are so beautiful'
p1545
aS'um how much is it'
p1546
aS'cool'
p1547
aS'your welcome so what are you doing'
p1548
aS'hi'
p1549
aS'hi'
p1550
aS'coffee makes everything fun'
p1551
aS'u are my favorite person on musically ily u are so gorgeous'
p1552
aS'your a goddess'
p1553
aS'morgan is this you'
p1554
aS'ok'
p1555
aS'can i ask u a question since your my fav muser'
p1556
aS'it was good'
p1557
aS'sounds great'
p1558
aS'awesome can i have a shout out'
p1559
aS'yes how much would it cost'
p1560
aS'hello is this morgan katherine'
p1561
aS'yes'
p1562
aS'you inspire me alot'
p1563
aS'hey'
p1564
aS'hey morgan katherine i m from pittsburgh and i your music lys'
p1565
aS'ok'
p1566
aS'hi'
p1567
aS'u are so pretty'
p1568
aS'how do i stop seeing these messages'
p1569
aS'can u bff me on music ly please'
p1570
aS'hi i m ur biggest ilysm'
p1571
aS'definitely'
p1572
aS'yes it does'
p1573
aS'yea omg i am crying'
p1574
aS'yes please'
p1575
aS'yeah'
p1576
aS'sup'
p1577
aS'oh and how old are you'
p1578
aS'i m gonna go check'
p1579
aS'omg hello'
p1580
aS'like am i seriously texting morgan'
p1581
aS'lol yes it does'
p1582
aS'can u pls come to florence south carolina before august'
p1583
aS'okay thank you'
p1584
aS'i m not sure if you will see this but morgan ilysm you are so gorgeous'
p1585
aS'please'
p1586
aS'good'
p1587
aS'good how is yours'
p1588
aS'lucky u got star bucks'
p1589
aS'your so gorgeous'
p1590
aS'oh omg hi'
p1591
aS'sounds awesome'
p1592
aS'yeah cool'
p1593
aS'ok'
p1594
aS'your welcome wanna do a duet'
p1595
aS'good how was urs'
p1596
aS'it was good'
p1597
aS'pretty'
p1598
aS'who is this'
p1599
aS'nice'
p1600
aS'cool'
p1601
aS'yes'
p1602
ag38
aS'cool'
p1603
aS'how can we get it'
p1604
aS'yesss'
p1605
aS'yea'
p1606
aS'can u bff me tho'
p1607
aS'thank you'
p1608
aS'thank you so much'
p1609
aS'hey'
p1610
aS'ya'
p1611
aS'omg ily so much'
p1612
aS'so can we talk right now'
p1613
aS'yess you answered back thank you i love you too thanks for texting me back your super pretty too'
p1614
aS'my day is very good just playing some b ball'
p1615
aS'i love your musically'
p1616
ag38
aS'good how was yours i have a question'
p1617
aS'so i m really talking to to a famous person'
p1618
aS'test'
p1619
aS'omg i love all your musicallys they are so good'
p1620
ag38
aS'yes how much'
p1621
aS'ok'
p1622
aS'yes'
p1623
aS'you re so beautiful'
p1624
aS'hey'
p1625
aS'good'
p1626
aS'hey i got a question'
p1627
aS'plz follow me and shoutout i love u and my username on musicaly is lyssa lou'
p1628
aS'np my name is darian i am one of your followers and i get inspired by you videos a lot you seem to always pick the right song and do great movements to them'
p1629
aS'horrible'
p1630
aS'ur so pretty'
p1631
aS'i am a big fan of u on musica ly'
p1632
aS'is this really you'
p1633
aS'ok'
p1634
aS'this is all really fake tho'
p1635
ag38
aS'same'
p1636
aS'if'
p1637
aS'you re so pretty and it was good'
p1638
aS'is this really morgan'
p1639
aS'hi i m one of ur followers off of musical ly my name is cassi'
p1640
aS'aww a wonderful how about yours'
p1641
aS'hi i love ur musicalys'
p1642
aS'sounds great omg i can t believe u texted back'
p1643
aS'it was good'
p1644
aS'your so beautiful'
p1645
aS'good'
p1646
aS'ok'
p1647
aS'hey'
p1648
aS'how was your day'
p1649
aS'that s so cute and good how about yours'
p1650
aS'omg'
p1651
aS'hey morgan you re such an inspiration i love all of your musicallys my musically is paigethompson ilysm girlie'
p1652
aS'i m getting a guinea pig'
p1653
aS'hi'
p1654
aS'i m in love with your hair it make my day if you texted back'
p1655
aS'how are you i hope it was great'
p1656
aS'yeah'
p1657
aS'im a really big fan of yours'
p1658
aS'okay'
p1659
aS'yea thanks so much for texting me back that means alot'
p1660
aS'who is this'
p1661
aS'hey'
p1662
aS'and my day was good it s my birthday'
p1663
aS'ok well i can t talk to people i don t know so goodbye'
p1664
aS'plz ik you will answer later but can u make me best fan forever so i can do duets with you or u can with me'
p1665
aS'of course'
p1666
ag38
aS'that s obvi a pic of the internet'
p1667
aS'heyy omg morgan i love you so much i love your musicallys so much it would mean so much to me if you texted back'
p1668
aS'okay'
p1669
aS'hi'
p1670
aS'i m a big fan lol'
p1671
aS'yes'
p1672
aS'hey i love you sm you are so amazing'
p1673
aS'hiiiiii'
p1674
aS'omggggg you respond'
p1675
aS'okay what time is it where u r'
p1676
aS'i love you'
p1677
aS'can you follow me on musically'
p1678
aS'you are suchh an inspiraton yes'
p1679
aS'hi i m mckenzie is this morgan from musicly'
p1680
aS'you re sooo pretty'
p1681
aS'your musically are awesome'
p1682
aS'yepp thx so much tbh this is really cool'
p1683
aS'hi'
p1684
aS'mine was good thanks for asking'
p1685
aS'what r u studying'
p1686
aS'can you follow me on musically that would be my biggest dream and it would make my day'
p1687
aS'is that the only response you have'
p1688
aS'anytime if you had to pick one muser who would be your favorite'
p1689
aS'yes'
p1690
aS'hey i m a big fan'
p1691
aS'oh cool'
p1692
aS'really good'
p1693
aS'heyyyy'
p1694
aS'okay well i m going to bed goodnight morgan am i allowed to text you tomorrow'
p1695
aS'hi'
p1696
aS'yes that sound amazing i can t believe this is actually u'
p1697
aS'please'
p1698
aS'yum'
p1699
aS'bff'
p1700
aS'i m day was great and i went to starbucks and subway'
p1701
aS'hello'
p1702
aS'how much is it'
p1703
aS'hi morgan i love u'
p1704
aS'replied ily'
p1705
aS'yea ilysm i m such a big fan'
p1706
aS'good'
p1707
aS'your fast to respond'
p1708
aS'is this actually morgan katherine'
p1709
aS'can u go live on musical ly tmm when u get the chance to'
p1710
aS'yeah'
p1711
aS'is this really you morgan i love your musiclys so much i hope you can follow me back my name is gisell haro'
p1712
aS'it was amazing'
p1713
aS'hi i ve been supporting u for awhile now and i wanted to say i love you so much'
p1714
aS'hey'
p1715
aS'hey morgan'
p1716
aS'i got high all day and now i m about to bake a cake'
p1717
aS'hi'
p1718
aS'very good how about you'
p1719
aS'yes but how much do it cost'
p1720
aS'omg hi'
p1721
aS'yeah thank you'
p1722
aS'just saying u look really pretty in your vids'
p1723
aS'good how about yours'
p1724
aS'ilysm'
p1725
aS'great'
p1726
aS'ilysm'
p1727
aS'yay ok just making sure'
p1728
aS'and i love your musically'
p1729
aS'hey'
p1730
aS'b'
p1731
aS'ok'
p1732
aS'i m a big fan from musically'
p1733
aS'you should post more musicallys of you with black hair'
p1734
aS'yes'
p1735
aS'my question is that how old are u i think that u are'
p1736
aS'ok i will watch it and like'
p1737
aS'good morning'
p1738
aS'an update for what'
p1739
aS'hi'
p1740
aS'katherine please'
p1741
aS'sounds great'
p1742
aS'hi'
p1743
aS'omg hey i m such a big fan i love you plz reply back'
p1744
aS'who is this'
p1745
aS'ur really pretty'
p1746
aS'yes i am very interested'
p1747
aS'yeah'
p1748
aS'btw i m good'
p1749
aS'can you please'
p1750
aS'good how about yours'
p1751
aS'ilysm'
p1752
aS'hey'
p1753
aS'yea'
p1754
ag38
aS'hey'
p1755
aS'hey'
p1756
aS'hi is this morgan'
p1757
aS'yes i am'
p1758
aS'can u please bff me my muser name is ave mae'
p1759
aS'hey is this morgan'
p1760
aS'morgan'
p1761
aS'hey'
p1762
aS'hey i m s fan can i have a shotout please and ur cute'
p1763
aS'aww cutee my days good lol'
p1764
aS'wow i love you so much you re the best'
p1765
aS'so can u bff me on musical ly only if u want u don t have to'
p1766
aS'can i get a bff or a follow please i love you so much'
p1767
aS'musically'
p1768
ag38
aS'if you answer this i will literally die of happiness i love you your videos and everything about you from emma'
p1769
aS'my day was great just got home from cheer practice'
p1770
aS'ok'
p1771
aS'okay'
p1772
aS'what s your fav song'
p1773
aS'good i made the cheer team'
p1774
aS'okay how are you'
p1775
aS'hey can i ask you something'
p1776
aS'asf'
p1777
aS'can you write my name on a piece of paper and then take a picture of it with you next to it'
p1778
aS'is this morgan katherine'
p1779
aS'go'
p1780
aS'good how bout u'
p1781
aS'hey'
p1782
aS'i hope so'
p1783
aS'your so pretty'
p1784
aS'hi'
p1785
aS'good'
p1786
aS'good'
p1787
aS'i got a baby sister'
p1788
aS'yea thx'
p1789
aS'yes'
p1790
aS'it was good glad you had fun'
p1791
aS'swim'
p1792
aS'my day was good'
p1793
ag38
aS'nvm'
p1794
ag38
aS'hi i love your musicallys your super pretty'
p1795
aS'sounds awesome i can t wait'
p1796
aS'i understand if u don t want to talk to me'
p1797
aS'ok'
p1798
aS'is this fake or is it really you'
p1799
aS'is this morgan from musically'
p1800
aS'why would you ever give your phone number out i mean i love you and all but not the best idea i mean it s your decision so do what ever you please love you'
p1801
ag38
aS'um is this really u'
p1802
aS'hi'
p1803
aS'oh nice and it was good how was yours'
p1804
aS'yum'
p1805
aS'ok i ll be checking and i will spam them'
p1806
aS'it s really good'
p1807
aS'yes how much is it'
p1808
aS'i love that musical that i made'
p1809
aS'i m a huge fan'
p1810
aS'yes'
p1811
aS'awe and it was good i had a question'
p1812
aS'stop texting me'
p1813
aS'how old are u'
p1814
aS'facetime please u call me'
p1815
aS'good'
p1816
aS'wish we would friends one day and get to meet you in real person one day maybe when your and me'
p1817
aS'd can u add me on insta http jeennii'
p1818
aS'hey how are you'
p1819
aS'i liked it'
p1820
aS'love you can you please follow me on instagram that would make my day i just had my wisdom teeth out lol madison hall'
p1821
aS'hi morgan'
p1822
aS'good'
p1823
aS'ig bih'
p1824
aS'test from ruben'
p1825
aS'i mean i guess'
p1826
aS'what are you doing today'
p1827
aS'your my favorite muser tbh'
p1828
aS'my account is happy kylie'
p1829
aS'okay'
p1830
aS'love that drink'
p1831
aS'talk later'
p1832
aS'and my name is blake yes i am a girl can you check my musically page it s blake ec'
p1833
aS'np can i get a bff on musical ly pls devon'
p1834
aS'absolutely how can i get it'
p1835
aS'who is this'
p1836
aS'is this morgan'
p1837
aS'hii'
p1838
aS'yep'
p1839
aS'yay'
p1840
aS'sounds great'
p1841
aS'heyy'
p1842
aS'who is this'
p1843
aS'yea that sounds cool'
p1844
aS'good'
p1845
aS'put'
p1846
aS'yeah totally cool'
p1847
aS'my day was great with my friends'
p1848
aS'sounds awesome i cant wait'
p1849
aS'damn'
p1850
aS'hey oh my gosh'
p1851
aS'you are soooooo pretty omg'
p1852
aS'omg yeah and no problem'
p1853
aS'your welcome'
p1854
aS'hey morgan omg i can t believe you texted me back'
p1855
aS'hi'
p1856
aS'morgan'
p1857
aS'i m so happy you responded'
p1858
aS'of course'
p1859
aS'yes jk'
p1860
aS'if this is really you then send me another picture'
p1861
aS'hi'
p1862
aS'hey'
p1863
aS'my parents died in a car accident today'
p1864
aS'good'
p1865
aS'hi i am your biggest fan i hope that you text back and i tried to call you but it said that it was an error so yeah i love you i hope we can be best friends'
p1866
aS'i just went to barnes and noble today and i bought the new book nerve it s also a movie coming out'
p1867
aS'hey'
p1868
aS'good'
p1869
aS'and can u follow me on musically it ava'
p1870
aS'good'
p1871
aS'hey omg i love your musiclys'
p1872
aS'good'
p1873
aS'yes totally'
p1874
aS'good he s adorable do u have snapchat'
p1875
aS'great how are you'
p1876
aS'yes i am very interested i have always loved how u did ur make up'
p1877
aS'ya'
p1878
aS'omg morgan ilysm it would mean the world if you texted back'
p1879
aS'yea is this really morgan though'
p1880
aS'what kind'
p1881
aS'true'
p1882
aS'ok'
p1883
aS'aww what kind of animals my day was great how was yours'
p1884
aS'good'
p1885
aS'hi i saw it musical ly that u were texting fans i m a huge fan'
p1886
aS'holy shit u actually replied correctly'
p1887
aS'yes ofc'
p1888
ag38
aS'can u bff me plz'
p1889
aS'totally thank you so much'
p1890
aS'good'
p1891
aS'hi'
p1892
aS'omg please follow me on instagarm it musically'
p1893
aS'hi is this morgan'
p1894
aS'yes'
p1895
aS'boring haha'
p1896
aS'i m'
p1897
aS'k'
p1898
aS'hi plz answer'
p1899
aS'oh'
p1900
aS'ok'
p1901
aS'oh alright thx'
p1902
aS'no i am good thank you'
p1903
aS'morgan'
p1904
aS'pretty good actually'
p1905
aS'it would mean a lot'
p1906
aS'yea'
p1907
aS'if it is ilysm and hope to meet u one day'
p1908
aS'you'
p1909
aS'hi'
p1910
aS'cool'
p1911
aS'nice how old are u'
p1912
aS'yes yes yes yes yes'
p1913
aS'yeah'
p1914
aS'btw i just want to say u are so pretty with makeup are with no makeup ur goals'
p1915
aS'good and u'
p1916
aS'and i just want to make sure are you the real morgan katherine'
p1917
aS'good'
p1918
aS'no and can u stop updating'
p1919
aS'yes'
p1920
aS'hi morgan i just wanted to say that you re such an amazing and beautiful person i love you so much'
p1921
aS'hi'
p1922
aS'hey are you morgan if you are i love your muscuallys and thx for making me best fan forever and we should like talk and be friends'
p1923
aS'can you plz bff me in musically it s ok if you don t want to'
p1924
aS'aw your my fav'
p1925
aS'how r u'
p1926
aS'good'
p1927
aS'can u add me on snapchat dankmaddii'
p1928
aS'hello'
p1929
aS'hello'
p1930
aS'can you do the duet for show it to my mom and told her she s wrong'
p1931
aS'good so glad you had a good day'
p1932
aS'ok'
p1933
aS'hey'
p1934
aS'yessss of course thank you so much for answering my text'
p1935
aS'hello'
p1936
aS'good'
p1937
aS'where can i get it'
p1938
aS'yessss'
p1939
aS'pretty good'
p1940
aS'yes that would be so great'
p1941
aS'hi i m one of your fan i love you so much please message me back'
p1942
aS'morgan'
p1943
aS'it was good'
p1944
aS'ok'
p1945
aS'yup'
p1946
aS'can i ask u a question'
p1947
aS'bff me on musical ly plzzz'
p1948
aS'it s fine i probably won t ever be like u and u will never notice me but that s ok'
p1949
aS'yes'
p1950
aS'your amazing'
p1951
aS'hi i am one of fans this morgan'
p1952
aS'who it this i do i know you'
p1953
aS'good and it s so cute'
p1954
aS'awww great how was yours'
p1955
aS'aww it was good'
p1956
aS'cause it would make my day and mean so much if you follow me'
p1957
aS'is there still other fans texting you'
p1958
aS'mine was good i hope yours was as amazing as you are'
p1959
aS'my day was bad'
p1960
aS'yay l m so happy'
p1961
aS'ok'
p1962
aS'can we duet'
p1963
aS'hey i m following u on musical ly i just texted your other number and it said to text this number'
p1964
aS'good have any advice for getting a macbook and saving up money'
p1965
aS'hey is this morgan'
p1966
aS'no problem i love your musicallys and you hair like it s just so pretty i like it'
p1967
aS'do u iike musically like'
p1968
aS'good'
p1969
aS'i hope you answer'
p1970
aS'wyd'
p1971
aS'omg hey morgan ilysmmm im one of your biggest fans ily'
p1972
aS'stop'
p1973
aS'yes my name is caylin i really like your musical lys youre so gorgeous'
p1974
aS'ur musicallys r awesome'
p1975
aS'sup'
p1976
aS'hi morgan i love u soooo much'
p1977
aS'hey is this morgan'
p1978
aS'good'
p1979
aS'yes i m interested how much is it'
p1980
ag38
aS'hey morgan'
p1981
aS'good you'
p1982
aS'good'
p1983
aS'yeah but it depends how much'
p1984
aS'um kkk'
p1985
aS'yes i m interested'
p1986
aS'what songs'
p1987
aS'i wish i could meet you'
p1988
aS'catfished'
p1989
aS'hey'
p1990
aS'hi'
p1991
aS'hi i love all ur musical lys'
p1992
aS'i m such a big fan'
p1993
aS'that s so cool'
p1994
aS'good'
p1995
aS'omg yes i am so interested'
p1996
aS'ilysm morgan ur so pretty asf'
p1997
aS'btw i m taylor'
p1998
aS'it was great'
p1999
aS'hey when did u start musical ly'
p2000
aS'omg morgan i love you'
p2001
aS'love you'
p2002
aS'hey is this morgan from musically'
p2003
aS'nice'
p2004
aS'good'
p2005
aS'your my inspiration btw'
p2006
aS'hi'
p2007
aS'hey morgan can you follow us on musically softball for life and kaitlynnelizabeth'
p2008
aS'ya i think your musical lys are amazing you should post more often'
p2009
aS'yup thx'
p2010
aS'hey'
p2011
aS'hi'
p2012
aS'hiiiii'
p2013
aS'aww so cute it was good thanks for asking'
p2014
aS'yup'
p2015
aS'yes'
p2016
aS'hai'
p2017
aS'hey'
p2018
aS'good'
p2019
aS'hey is this morgan'
p2020
aS'wyd'
p2021
aS'is this really her'
p2022
aS'how much is is'
p2023
aS'hey can u follow me'
p2024
aS'you slayy'
p2025
aS'ok'
p2026
aS'wat does your real voice sound like'
p2027
aS'im a fan'
p2028
aS'yeah'
p2029
aS'yup luv you lots'
p2030
aS'hi'
p2031
aS'its ok if u dont no one likes me and i get bullied'
p2032
aS'is this really u'
p2033
aS'ohh what are you studying for'
p2034
aS'yes'
p2035
aS'hi'
p2036
aS'hey love you on musically'
p2037
aS'please'
p2038
aS'ok i will check it out'
p2039
aS'it s great'
p2040
aS'hey i m a really big fan of you and i wanted to tell you that you are gorgeous plz follow me ashlynftaylor'
p2041
aS'yea'
p2042
aS'how much'
p2043
aS'it was good my sisters taking her senior photos'
p2044
aS'ok'
p2045
aS'who is this'
p2046
aS'hey'
p2047
aS'if this is auctually morgan i love you sooo much'
p2048
aS'hey'
p2049
aS'okay but can you follow me on insta and musical ly'
p2050
aS'yess this is awesome how much is it'
p2051
aS'hey'
p2052
aS'you are so pretty'
p2053
aS'good'
p2054
aS'hi'
p2055
aS'yeah sounds cool'
p2056
aS'good and cute'
p2057
aS'sounds great pretty sure this is a bot but'
p2058
aS'i love you'
p2059
aS'is this actually morgan'
p2060
aS'it was amazing lol'
p2061
aS'yee'
p2062
aS'good'
p2063
aS'who are you'
p2064
aS'how much is your kit'
p2065
aS'i am interested'
p2066
aS'and'
p2067
aS'bad i got dumped by my boyfriend i really need someone to talk to'
p2068
aS'omg i love you so much'
p2069
aS'hi morgan'
p2070
aS'yes please i d love one but how much do they cost my moms running low on money lately and it s been hard'
p2071
aS'and np love you'
p2072
aS'cool'
p2073
aS'hi morgan'
p2074
aS'that s really cool i ve always liked your last name because my first name is actually catherine but spelt with a c'
p2075
aS'can u follow me'
p2076
aS'everyone thinks you were hacked'
p2077
aS'good'
p2078
aS'yes sounds awesome im very interested'
p2079
aS'good'
p2080
aS'great i m camping'
p2081
aS'good'
p2082
aS'hey is this morgan'
p2083
aS'hello'
p2084
aS'hi'
p2085
aS'hey'
p2086
aS'morgan'
p2087
aS'could you follow me'
p2088
aS'yesss'
p2089
aS'aww'
p2090
aS'yeah that s perfect'
p2091
aS'um never mind it s not working for some odd reason'
p2092
aS'hey'
p2093
aS'awwww and good'
p2094
aS'hi i m your biggest fan'
p2095
aS'my day was good'
p2096
aS'hey'
p2097
aS'hi who is this'
p2098
aS'is this katherine'
p2099
aS'no thanks but thank you'
p2100
aS'i think you are sooooo pretty'
p2101
aS'yep'
p2102
aS'hello'
p2103
aS'musical ly'
p2104
aS'omg hi i m such a big fan of yours on music ly'
p2105
aS'ok i have to go'
p2106
aS'omg hii ilysm can u do a duet with me on musically kendallhein'
p2107
aS'hey i am a fan from muscail ly'
p2108
ag38
aS'how old are you and what grade are you in'
p2109
ag38
aS'hi'
p2110
aS'awsome'
p2111
aS'yes'
p2112
aS'ahhhh so exited'
p2113
aS'could we facetime sometime'
p2114
aS'aww so cute good day'
p2115
aS'and your so pretty how do u do it'
p2116
aS'r u still here'
p2117
aS'hi'
p2118
aS'aww cute my day was good i spent it with my family and we went out for dinner'
p2119
aS'hey is this actually real orrr'
p2120
aS'ok thanks i just want to make sure'
p2121
aS'yeahhh'
p2122
aS'hi can u call me thanx by the way this is mercedez'
p2123
aS'and my musically is valeria b'
p2124
aS'i saw it it s really good'
p2125
aS'hi'
p2126
aS'yep sounds good your musicallys rock'
p2127
aS'good'
p2128
aS'yes omg i love you musically canwe talk'
p2129
aS'ight'
p2130
aS'it s was good how was yours'
p2131
aS'omg i meant good'
p2132
aS'i love you so much'
p2133
aS'can u add me please'
p2134
aS'can u give me a shoutout in kinda new to this'
p2135
aS'good'
p2136
aS'where s mine'
p2137
aS'hey'
p2138
aS'hi'
p2139
aS'awww cute good'
p2140
aS'hi i m grace and i love ur musical ly'
p2141
aS'hey'
p2142
aS'awww thanks is so cute and my day was so good'
p2143
aS'hi i m a big fan of yours and i ve been watching your musicallys for a while i don t know if you ll ever see this but thank you for being who your are my musically is genna'
p2144
aS'look good'
p2145
aS'i m from michigan'
p2146
ag38
aS'yes omg follow me amykristofferson'
p2147
aS'okay can i ask u some questions'
p2148
aS'sounds great'
p2149
aS'this is so amazing i cant believe i am actually talking to you'
p2150
aS'always'
p2151
aS'good'
p2152
aS'good'
p2153
aS'omg is it really you'
p2154
aS'hi is this morgan katherine'
p2155
aS'yes i can t believe you answered you are my favorite muster ilysm'
p2156
aS'can you call me sometime'
p2157
aS'yea'
p2158
aS'good'
p2159
aS'hey i love your musicallys your so pretty'
p2160
aS'hello'
p2161
aS'hi'
p2162
aS'hi i m sarah one of ur biggest fans i love u so much u inspire me so much please duet with me my musically is s knechtel love u'
p2163
aS'hi'
p2164
aS'my day was good'
p2165
aS'hi my name is chelsea i m a big fan of urs'
p2166
aS'yep'
p2167
aS'wyd'
p2168
aS'yes'
p2169
aS'good can u please follow me on music ly'
p2170
aS'on musically'
p2171
aS'awe how was your day'
p2172
aS'omg my day was really good and that guinea pig is no where near as cute as you'
p2173
aS'hey'
p2174
aS'good'
p2175
aS'how many fans have done this'
p2176
aS'good'
p2177
aS'yes you re so pretty and your musical lys are great'
p2178
aS'ya'
p2179
aS'pretty good almost caught one of those in the wild'
p2180
aS'hi i m a fan my name is sylah but what do you use to make you re hair long'
p2181
aS'it was good how about yours'
p2182
aS'hey'
p2183
aS'can you stop sending theses please'
p2184
aS'it was really good i made a tye dye cake and thank u for asking about my day'
p2185
aS'okay thanks'
p2186
aS'cute'
p2187
aS'lol'
p2188
aS'yes'
p2189
aS'hi is this morgan'
p2190
aS'hey i m one of your fans on musical ly'
p2191
aS'yea'
p2192
aS'is this katherine'
p2193
aS'yes it does'
p2194
aS'omg hiii'
p2195
aS'i shall talk to you tomorow'
p2196
aS'so lucky'
p2197
aS'in your way you slay girl'
p2198
aS'good'
p2199
aS'hello'
p2200
aS'ok'
p2201
aS'hey'
p2202
aS'hey i love your musicals'
p2203
aS'very true'
p2204
aS'yea no prob so how is ur day been going'
p2205
aS'hello there'
p2206
aS'goodnight'
p2207
aS'hi i am a fan'
p2208
aS'lexi j moore'
p2209
aS'yes how'
p2210
aS'thxs the offered but i can t do make up because my parents to let me wear it'
p2211
aS'yes'
p2212
aS'hi again'
p2213
aS'ok i ll check it out'
p2214
aS'hi'
p2215
aS'yah'
p2216
aS'can you pls follow my musically or at least make a duet or like some of them pls my musically is amy'
p2217
aS'i feel like this is a computer doing all this so'
p2218
aS'haha that s amazing i m talking to a great person'
p2219
aS'awwww'
p2220
aS'awe'
p2221
aS'it was great i danced for hours at my dance studio'
p2222
aS'good'
p2223
aS'and that s not a photo of u rift then u can tell so if someone did u might need to get better at hacking'
p2224
aS'but tmo'
p2225
aS'hey omg i can t beleive this is you'
p2226
aS'hi'
p2227
aS'good but that is so adorable btw will u bff me on musically please'
p2228
aS'hi'
p2229
aS'yup'
p2230
aS'hi'
p2231
aS'where do u live'
p2232
aS'i like your musical ly'
p2233
aS'good but that doesn t look like u'
p2234
aS'how are you so gourges'
p2235
aS'hi'
p2236
aS'your pretty'
p2237
aS'hey i love u how do you do your makeup and products do you use btw my name is rayne'
p2238
aS'good'
p2239
aS'can u txt in musically is the box there cuz it s not for me plz help'
p2240
aS'hello'
p2241
aS'aww that s so cute and good hbu'
p2242
aS'lucky'
p2243
aS'hey'
p2244
aS'yes'
p2245
aS'my day was amazing how was yours'
p2246
aS'hey i love you so much'
p2247
aS'aww and my day was good'
p2248
aS'yes i am'
p2249
aS'what grade r u in'
p2250
aS'your the best'
p2251
aS'is this actually morgan'
p2252
aS'ok omg thanks so much i love u'
p2253
aS'ok'
p2254
aS'yes please'
p2255
aS'wyd'
p2256
ag38
aS'are u there'
p2257
aS'ok'
p2258
aS'don t text me'
p2259
aS'ok'
p2260
aS'oh ok'
p2261
aS'hi morgan i m one of your biggest fans on musical ly i love your videos and especially your makeup i hope that you write back to me cause that would be pretty awesome'
p2262
aS'that s good'
p2263
aS'hey'
p2264
aS'yes i m interested'
p2265
aS'okay thank you for telling me'
p2266
aS'call'
p2267
aS'hey i saw u on musical ly'
p2268
aS'is it possible that i can text u tomorrow morgan katherine'
p2269
aS'i just swam'
p2270
aS'great how was you day'
p2271
aS'good'
p2272
ag38
aS'sorry im just trying to start a convo lol and im bad at it'
p2273
aS'omg u replied'
p2274
aS'good going to my ranch'
p2275
aS'hi'
p2276
aS'hello'
p2277
aS'great'
p2278
aS'how much is it'
p2279
aS'wyd'
p2280
ag38
aS'yes but would it cost money'
p2281
aS'my user name is tbh fabulous'
p2282
aS'okay love'
p2283
aS'umm how much'
p2284
aS'is it live a giveaway'
p2285
aS'hey morgan i am such a big fan'
p2286
aS'thank you for responding it means so much to me you are so gorgeous and amazing'
p2287
aS'good'
p2288
aS'it was preety good and thats cool'
p2289
aS'ok'
p2290
aS'morgan'
p2291
ag38
aS'sound great'
p2292
aS'are u from musicly'
p2293
aS'heey'
p2294
aS'good'
p2295
aS'ily can u plz respond'
p2296
aS'who s this'
p2297
aS'hi'
p2298
aS'hi why are you the best'
p2299
aS'it was okay how was yours'
p2300
aS'nice makeup'
p2301
aS'who is this'
p2302
aS'mine was good oh my gosh adorable'
p2303
aS'heyyy'
p2304
aS'who is this'
p2305
aS'hope you have a good time'
p2306
aS'good'
p2307
aS'great thx'
p2308
aS'hey'
p2309
aS'can you please try to answer me'
p2310
ag38
aS'hi i love you sooooooooo much i can t even explain it in words u are sooo pretty and talented in so many ways'
p2311
aS'hi my name is brie ily ur musically'
p2312
aS'cool im a hugeeeeeeee fan'
p2313
aS'ok thx'
p2314
aS'how can i get it'
p2315
aS'actually'
p2316
aS'good'
p2317
aS'awe u look pretty it was ok'
p2318
a.