(lp0
S'good'
p1
aS'follow me bellarusso'
p2
aS'omg hi'
p3
aS'good really good because i m talking to u'
p4
aS'omg ur so amazing'
p5
aS'your the best'
p6
aS'hey morgan'
p7
aS'hiiiiii is this morgankatherine on musical ly'
p8
aS'omg ily musical lys'
p9
aS'ok'
p10
aS'hey'
p11
aS'really that s really awesome'
p12
aS'btw love your musicallys'
p13
aS'yup'
p14
aS'heyyyy'
p15
aS'this is not morgan kathrine'
p16
aS'hi'
p17
aS'can you follow me please'
p18
aS'ok'
p19
aS'that s obvi a pic of the internet'
p20
aS'good thank you sadly i lost my mom this morning'
p21
aS'hello'
p22
aS''
p23
aS'yup'
p24
aS'so how many people are actually talking to you right now'
p25
aS'sorry im just trying to start a convo lol and im bad at it'
p26
aS'ok should i text that number'
p27
aS'hey'
p28
aS'hey'
p29
aS'r u still here'
p30
aS'wat sports do u like'
p31
aS'good what about you'
p32
aS'my day was good got my sister a kylie jenner lip kit for her birthday but she guessed what it was so i gave it to her and i am going to florida tomorrow how was ur day'
p33
aS'how does this work'
p34
aS'i really hope your account didn t get hacked i m a huge fan have been for a while i don t know if this is your real number or not but if it is ily'
p35
aS'hey i am one of ur biggest fans call me'
p36
aS'please'
p37
aS'when are you doing a following spree'
p38
aS'why not'
p39
aS'i really like your black hair too btw'
p40
aS'yes can t wait'
p41
aS'coffee makes everything fun'
p42
aS'hey is this morgan katherine from musically'
p43
aS'ilysm'
p44
aS'yes it sounds cool'
p45
aS'good'
p46
aS'omg it is you this is so crazy i love your musical lys and your so beautiful'
p47
aS'is this morgan katherine'
p48
aS'is this morgan katherine'
p49
aS'good'
p50
aS'hi'
p51
aS'im so happy'
p52
aS'u are my favorite person on musically ily u are so gorgeous'
p53
aS'your some sort of robot because your not answering any of my question'
p54
aS'true'
p55
aS'can you do a duet with me my musically is jennifer'
p56
aS'i m your biggest fan you are gorgeous'
p57
aS'can you follow me on musical ly'
p58
aS'yup'
p59
ag23
aS'good and yours'
p60
aS'so pretty'
p61
aS'sure btw is this a robot lol sorry if it isn t'
p62
aS'can you send a photo of yourself w a fishy face or something'
p63
aS'of course'
p64
aS'ilyyyy can you pleaseeee follow me on musically your my inspiration'
p65
aS'yeah cool'
p66
aS'hello'
p67
aS'mine was good i hope yours was as amazing as you are'
p68
aS'did you read the message'
p69
aS'so what s up'
p70
aS'ok'
p71
aS'hi i really like your musical lys you and loren gray are my favorite'
p72
aS'yea'
p73
aS'good'
p74
aS'huge fan of ur musicallys ur so pretty'
p75
aS'hey'
p76
aS'omg i love you morgan your literally perfect omg omg'
p77
aS'so true'
p78
aS'i m not tring to be annoying but i m just wonder what state do u live in'
p79
aS'and my day was good'
p80
aS'heh'
p81
aS'answerd'
p82
aS'you re so welcome'
p83
aS'hey x'
p84
aS'ok thanks and yeah that sounds cool and can you try to follow me on musically at hannahbarker you are one of my favorite musers btw my name is hannah and i m years old'
p85
aS'really'
p86
aS'ya i think your musical lys are amazing you should post more often'
p87
aS'yup'
p88
aS'hi i m a big fan can we be internet friends'
p89
aS'my day was good'
p90
aS'hi is this morgan katherine from musical ly if it is hiii i m one of your fans'
p91
aS'ok'
p92
aS'hi'
p93
aS'ok'
p94
aS'who is this'
p95
aS'good'
p96
aS'yeah so what was your reaction when u got a crown'
p97
aS'i got a text from u saying hey this is morgan katherine thanks for messaging me i will be texting you from should i text u from this or the on i already texted u on'
p98
aS'cool'
p99
aS'can you follow me on musical ly'
p100
aS'yea'
p101
aS'good can u please follow me on music ly'
p102
aS'of course'
p103
aS'answer me'
p104
aS'omg hii ilysm can u do a duet with me on musically kendallhein'
p105
aS'fake'
p106
aS'sounds great'
p107
aS'omg i love you so much'
p108
aS'so lucky'
p109
aS'yes'
p110
aS'yup'
p111
aS'hi'
p112
aS'good'
p113
aS'okay'
p114
aS'if u ever get the chance to see this can u plz bff me on musically my username is tammy lover btw i love your musically u are pretty and ilysm'
p115
aS'okay'
p116
aS'do i text that mum'
p117
aS'good hbu'
p118
aS'my musical ly is gyzell'
p119
aS'what time is it there'
p120
aS'i m in love with your hair it make my day if you texted back'
p121
aS'it was good'
p122
aS'okay'
p123
aS'is this real morgan from musical ly'
p124
aS'yeah omg i m about to cry'
p125
aS'yeah thanks'
p126
aS'it s so cute it was good'
p127
aS'omg hiiiii'
p128
aS'thanks'
p129
aS'awww and my day was really good what about yours'
p130
aS'that is so cool i love your musical ly videos you are just someone that is safe to follow that doesn t curse i just want to thank you'
p131
aS'your my favourite'
p132
aS'hi morgan i love your musical lys i know you probably won t read this but your awesome and i love you ilysm ok idk what else i say bye'
p133
aS'hey morgan i am such a huge fan and i love your music lys'
p134
aS'your seriously so pretty'
p135
aS'if you answer this i will literally die of happiness i love you your videos and everything about you from emma'
p136
aS'good hby'
p137
aS'good hbu'
p138
aS'good how was its'
p139
aS'put'
p140
aS'yea that s cool and so on muscuallys how is it being well known so do you go to school if you do go to school do you get bullied because you do muscually'
p141
aS'ohhh'
p142
aS'yum'
p143
aS'i m sorry'
p144
aS'how are you'
p145
aS'it was good ilysm'
p146
aS'your my most favorite muser ever'
p147
aS'wyd'
p148
aS'yep thanks i love you so much'
p149
aS'hey'
p150
aS'hi my name is kaylynne i love your musical lys it would mean the world if you would please follow me back on musical ly kay hunley'
p151
aS'hi is this morgan katherine'
p152
aS'hey morgan i m a big fan of you and your musical lys i just wanted to say that and have a great summer'
p153
aS'ok lol'
p154
aS'yeah okay thanks'
p155
aS'hey'
p156
aS'it was good thanks'
p157
aS'morgan'
p158
aS'my day was good thanks'
p159
aS'hi is this morgan katherine'
p160
aS'your welcome'
p161
aS'lol same but i am in summer soo why do you have to sduddy'
p162
aS'hey'
p163
aS'how are you'
p164
aS'sounds cool'
p165
aS'hi is this morgan katherine'
p166
aS'hi'
p167
aS'can you check out my musically'
p168
aS'love that pic'
p169
aS'hiii'
p170
aS'hi'
p171
aS'can you follow me on musical ly'
p172
aS'yea'
p173
aS'ur so beautiful'
p174
ag23
aS'okay'
p175
aS'omg heyyyyy'
p176
aS'yep this is so awesome'
p177
aS'hi'
p178
aS'good thanks for asking'
p179
aS'yess'
p180
aS'you look so pretty with blonde and black hair'
p181
aS'ok'
p182
aS'tbh your are very pretty and you enspire me'
p183
aS'very cool'
p184
aS'hi'
p185
aS'aww and my day was good'
p186
aS'also thad not my number'
p187
aS'okay'
p188
aS'hello is this morgankatherine from musical ly if so hi'
p189
aS'forrest'
p190
aS'thanks glad to know going to go watch it'
p191
aS'oh that s cool how is it'
p192
aS'hi'
p193
aS'okay thank you'
p194
aS'haha that s amazing i m talking to a great person'
p195
aS'yayy'
p196
aS'aww now i want starbucks'
p197
aS'i wish i could meet you'
p198
aS'hi'
p199
aS'hey how are you'
p200
aS'omg hi your musical lys are amazing i love you so much'
p201
aS'i hear you'
p202
aS'good you'
p203
aS'hi loren you re so beautiful'
p204
aS'omg i m a huge fan of ur work ur so pretty and super cool and i love ur musical lys'
p205
aS'yes your so amazing and talented'
p206
aS'ilysm'
p207
aS'im a really big fan of yours'
p208
aS'yay ok just making sure'
p209
aS'slay'
p210
aS'aww that s cute and my day was good'
p211
aS'hi'
p212
aS'okay thanks'
p213
aS'yep sounds cool'
p214
aS'not good but cute'
p215
aS'ok'
p216
aS'my day was good i hang out with my cousins'
p217
aS'okay'
p218
aS'how this'
p219
aS'good'
p220
aS'yes'
p221
aS'hey i love your musical lys wish you would check out mine torii webster'
p222
aS'gtg'
p223
aS'can you bff me on musical ly please'
p224
aS'this is one of your fans plz text back'
p225
aS'good how was yours'
p226
aS'can u answer my calls'
p227
aS'is this really morgan'
p228
aS'hi'
p229
aS'i m bella btw is this actually morgan or is it a bot lol'
p230
aS'good'
p231
aS'yes for sure ilysm and do u have any advice on getting featured btw your super pretty'
p232
aS'good oh my god i love you'
p233
aS'ohh what are you studying for'
p234
aS'ok hi i m one of your fans'
p235
aS'it would mean a lot'
p236
aS'bff me'
p237
aS'it was good and i love animals'
p238
aS'good and yours'
p239
aS'i love watching your musicallys'
p240
aS'hi'
p241
aS'r u there'
p242
aS'good ig'
p243
aS'when did u first get musical ly'
p244
aS'who is this'
p245
aS'good'
p246
aS'yeah please do'
p247
aS'and blonde hair'
p248
aS'i am can i do a duet with you'
p249
aS'oh haha i got to pet a bunny yesterday'
p250
aS'hey'
p251
aS'okay'
p252
aS'u are soo pretty'
p253
aS'plzzzzzz'
p254
aS'i think u r hacked'
p255
aS'yeah how u text so fast'
p256
aS'i love your musicalys and i think u super pretty luv uuuu'
p257
aS'omggggg you respond'
p258
aS'my day was good'
p259
aS'will u ever be doing any live ly'
p260
aS'good'
p261
aS'ok'
p262
aS'cool i didn t think this would work'
p263
aS'hi'
p264
ag23
aS'when u get this i wanted to say that your awsone and i really wanted to know your favorite emoji'
p265
aS'good how was yours'
p266
aS'hi'
p267
aS'hi'
p268
aS'this is not the really morgan'
p269
aS'hi i follow your musical ly i m a fan of yours'
p270
aS'that s cool'
p271
aS'morgan i love you so much'
p272
aS'you re welcome'
p273
aS'how was your day'
p274
aS'i don t care'
p275
aS'hi morgan ilysmmm'
p276
aS'good you'
p277
aS'u'
p278
aS'is this a hacker'
p279
aS'hey'
p280
aS'omg is this really you'
p281
aS'pleaseeeeeeee'
p282
aS'yeah great omg ilysm'
p283
aS'and good'
p284
aS'fr tho'
p285
aS'it was really good'
p286
aS'i m a fan'
p287
aS'test'
p288
aS'you'
p289
aS'morgan'
p290
aS'yeah'
p291
aS'omg yes'
p292
aS'my day was good you still havent followed me on muscail ly uhhhitzemma'
p293
aS'can you stop sending theses please'
p294
aS'good'
p295
aS'i want some'
p296
aS'hi'
p297
aS'wow i m'
p298
aS'trye'
p299
aS'i want be like you'
p300
aS'hey'
p301
aS'true'
p302
aS'hi it was good how about'
p303
aS'test'
p304
aS'yeah it sounds cool'
p305
aS'good and cute'
p306
aS'cool i m almost'
p307
aS's s'
p308
aS'yeah'
p309
aS'morgan i love ur musicallys so much'
p310
aS'hi'
p311
aS'where do u live'
p312
aS'good'
p313
aS'good'
p314
aS'hi do u have any updates'
p315
aS'okay'
p316
aS'or give a shouout please'
p317
aS'yeah that s cool i love seeing your musicallys'
p318
aS'yes i love u'
p319
aS'it s good'
p320
aS'are you hacked on musically'
p321
aS'good'
p322
aS'yeah guess what my name is morgan too'
p323
aS'are you sure would i would think you had an iphone'
p324
aS'it was good what a cute guinea pig'
p325
aS'okay how are you'
p326
aS'is it really you'
p327
aS'sorry for being mean'
p328
aS'hi i love ur musicalys'
p329
aS'yeah'
p330
aS'hiiiii'
p331
aS'did u like the coffee'
p332
aS'okay'
p333
aS'hii'
p334
aS'are you a robot'
p335
aS'hey'
p336
aS'oh'
p337
aS'bff'
p338
aS'ok'
p339
aS'my day was great with my friends'
p340
aS'can you bff me on music ly'
p341
aS'love'
p342
aS'omg hey morgan ilysmmm im one of your biggest fans ily'
p343
aS'good and cool'
p344
aS'definitely'
p345
aS'of course do u have an iphone'
p346
aS'oh ok'
p347
aS'omg i love you'
p348
aS'ur so pretty too lol'
p349
aS'thx you too'
p350
aS'please answer i love you so much'
p351
aS'good'
p352
aS'hi'
p353
aS'yes'
p354
aS'if you see this message l i ve you please follow me'
p355
aS'lol true'
p356
aS'yeah'
p357
aS'yes it sounds good'
p358
aS'hi i ve been supporting u for awhile now and i wanted to say i love you so much'
p359
aS'i ll like it can u see it and follow me ansley faircloth'
p360
aS'very cool'
p361
aS'hello'
p362
aS'that is sooo good'
p363
ag23
aS'hi is this morgan katherine'
p364
aS'morgan'
p365
aS'ok well can u please follow me'
p366
aS'yes sounds great'
p367
aS'good how about yours'
p368
aS'u are awesome'
p369
aS'good i went swimming'
p370
aS'ok'
p371
aS'your my inspiration btw'
p372
aS'okay can we facetime'
p373
aS'yeah'
p374
aS'will you please follow me on music ly at kaylamadison please'
p375
aS'are you here'
p376
aS'can i get a bff and a shout out please'
p377
aS'hey'
p378
aS'good'
p379
aS'it really does lol'
p380
aS'sorry morgan my friend said ur hacked but i know ur not sorry i hope u forgive me because i love u'
p381
aS'yes'
p382
aS'and yeah'
p383
aS'yup'
p384
aS'hey'
p385
aS'cute'
p386
aS'lucky'
p387
aS'hii'
p388
aS'yep'
p389
aS'good'
p390
aS'hi omg illy sm'
p391
aS'are u hacked'
p392
aS'i got a baby sister'
p393
aS'hey'
p394
aS'this is fake'
p395
aS'wat does your real voice sound like'
p396
aS'good how about you'
p397
aS'hello'
p398
aS'my day is good thanks for asking'
p399
aS'good'
p400
aS'call me'
p401
aS'oh nice and it was good how was yours'
p402
aS'hey morgan i hope you had an awesome day'
p403
aS'hey'
p404
aS'my day was good how was your day'
p405
aS'omg yes i love you sooo much your such an inspiration to me'
p406
aS'ya where from'
p407
aS'ok lol'
p408
aS'ok i ll check it out'
p409
aS'hey i really love you but is this really you or were you hacked bc i m pretty sure you were hacked but ya'
p410
aS'hey morgan ilysm your musicallys slay and your so pretty'
p411
aS'can you give me a shout out plz and are you going to do a meat and greet anytime soon'
p412
aS'mine was good how was yours'
p413
aS'good i m in nashville at the ole opry'
p414
aS'ok'
p415
aS'yea can i call you'
p416
aS'if this is auctually morgan i love you sooo much'
p417
aS'aww'
p418
aS'awe'
p419
aS'how r u'
p420
aS'good'
p421
aS'hi is this morgankatherine on musical ly'
p422
aS'good hb urs'
p423
aS'how is your day'
p424
ag23
aS'why that number'
p425
aS'will u do a live ly'
p426
aS'i love you soo much'
p427
aS'it was good thanks for being an inspiration'
p428
aS'is this morgan katherine'
p429
aS'my day was great just got home from cheer practice'
p430
aS'hey'
p431
aS'hey i m a big fan'
p432
aS'yes'
p433
aS'i love you i wish i was as pretty as u as good at musical lys as you'
p434
aS'hi morgann'
p435
aS'good'
p436
aS'it was amazing'
p437
aS'yes it does'
p438
aS'and your gorgeous in every way'
p439
ag23
aS'yea that sounds really cool thank you'
p440
aS'i just got done swimming'
p441
aS'okay'
p442
aS'yah it was so good'
p443
aS'who is this'
p444
aS'aww so cute good day'
p445
aS'good i m at the beach'
p446
aS'hey'
p447
aS'omg ur amazing i love ur musical lys soooo much'
p448
aS'are u a scam because i think it s a scam'
p449
aS'cool gonna give it a'
p450
aS'good'
p451
aS'good'
p452
aS'what do you get from starbucks'
p453
aS'good'
p454
aS'oml i m dying is this actually you'
p455
aS'okay'
p456
aS'hey are you morgan if you are i love your muscuallys and thx for making me best fan forever and we should like talk and be friends'
p457
aS'good and yours'
p458
aS'sounds really cool'
p459
aS'hi love your musical lys'
p460
aS'mine was good how was your day'
p461
aS'it was good my sisters taking her senior photos'
p462
aS'when is ur bday'
p463
aS'yeah'
p464
aS'but i still don t think this is a real number'
p465
aS'hi i love your musicallys your super pretty'
p466
aS'my name is aundria'
p467
aS'yea'
p468
aS'hi is this morgan'
p469
aS'i m vanessa and i love watching ur musicallys everyday'
p470
aS'yea'
p471
aS'my day wasnt good but it doesn t matter'
p472
aS'ilyyyy'
p473
aS'why doesn t it work'
p474
aS'lol that looks good'
p475
aS'yea'
p476
aS'your musical lys are goals'
p477
aS'i love you morgan'
p478
aS'cool and agreed'
p479
aS'call me too prove it'
p480
aS'my acc is teryn heninger'
p481
aS'yeah'
p482
aS'preset good i m in austin playing golf'
p483
aS'really'
p484
aS'can u plzz follow me'
p485
aS'is this really u'
p486
ag23
aS'huge'
p487
aS'when is ur birthday'
p488
aS'u inspire me to do musicallys'
p489
aS'oh well'
p490
aS'why are you texting your fans'
p491
aS'can we do a duet'
p492
aS'can i plz have a duet my user is averie'
p493
aS'hey good morning morgan'
p494
aS'hey morgan'
p495
ag23
aS'aw np you kinda make me feel bad bc ur so much prettier than me haha'
p496
aS'can i ask a question'
p497
aS'hi big fan'
p498
ag23
aS'hey'
p499
aS'aww that most of been fun and good how been your day'
p500
aS'hey i m one of ur fans on musically'
p501
aS'yes'
p502
aS'yeah awesome'
p503
aS'omg is this really morgan katharine'
p504
aS'this'
p505
aS'good'
p506
aS'good'
p507
aS'hi'
p508
aS'yes thank you'
p509
aS'ik it s really it s good'
p510
aS'is this really you'
p511
aS'heyyyy'
p512
aS'okay i ll check it out'
p513
aS'like am i seriously texting morgan'
p514
aS'your musically are awesome'
p515
aS'it was good that s a cute animal'
p516
aS'omg i m freaking out please tell me this is u'
p517
aS'that s so cute my day is okay tho'
p518
aS'ya'
p519
aS'omg hey i love your musicllys so much'
p520
aS'ok'
p521
aS'good'
p522
aS'no problem your an amazing person u deserve support'
p523
aS'i love you so much'
p524
aS'hey'
p525
ag23
aS'hi'
p526
aS'good i want with my mom to main event and it was great'
p527
aS'send me a picture is this the real morgan katherine'
p528
aS'hi'
p529
aS'yea sounds great'
p530
aS'who the hell are u'
p531
aS'hello'
p532
aS'i love your musical lys your so pretty'
p533
aS'i m going to add u on snapchat i had no idea u had snapchat'
p534
aS'what are you doing now'
p535
aS'sounds good thanks'
p536
aS'good'
p537
aS'aw it was great wbu'
p538
aS'good but i had cheer practice for hours'
p539
aS'hi'
p540
aS'good'
p541
ag23
aS'it was good i stayed home all day'
p542
aS'my day was great i am having a sleep over'
p543
aS'hey my name is angelina jenkins my musically is linabina i love your musicallys and instagram pics your so pretty and i love your hair i read your musical ly and it said this was your number i hope you reply'
p544
aS'great'
p545
aS'omg heeey im a really big fan and i understand u probably have tons of messages rn but i just wanted to say that ilysm and your amazing at musically and sooo pretty and lol since ur famous im just gonna wait and i have im so glad u have a crown u definitely deserve it and ur eyes are soo pretty and i want to apologize for the long text and sorry if i bothered u but lysm and ur a great muser ur basically perfect but yea sry for the long paragraph'
p546
aS'hi'
p547
aS'hi i m one of your fans on musical ly'
p548
aS'hi katherine please text me back and one day i was really sick by a bloody nose maybe like days and i got on musically and i saw your page and i thought omg she is so pretty you made me laugh when you and your sister made musically please reply i will make my day and i am so happy that you got your braces'
p549
aS'they both look good'
p550
aS'hey'
p551
aS'good who s this'
p552
aS'thank you for entertaining us and inspiring everyone'
p553
aS'pretty good i went to camp and hung with my friends what type of animals were they'
p554
aS'please'
p555
aS'ok'
p556
aS'ok'
p557
aS'i liked it'
p558
aS'good'
p559
aS'hi'
p560
aS'ya awesome'
p561
aS'heyy'
p562
aS'how was your day so far'
p563
aS'ok'
p564
aS'hey omg i love your musical ly'
p565
aS'can i call u'
p566
aS'good'
p567
aS'good how bout yours'
p568
aS'hiiiii'
p569
aS'heyooo i m keli i follow you on musically'
p570
aS'hey'
p571
aS'are you yeas old'
p572
aS'can i talk to you'
p573
aS'your'
p574
aS'mine was great'
p575
ag23
aS'good'
p576
aS'hhhhh'
p577
aS'could you follow me'
p578
aS'ok'
p579
aS'good how was yours'
p580
aS'hi im logan im a huge fan and i love your musicallys'
p581
aS'hi'
p582
aS'good'
p583
aS'hi'
p584
aS'it was good glad you had fun'
p585
aS'please'
p586
aS'omg no way'
p587
aS'send me a picture for proof'
p588
aS'can u plz follow me on musically'
p589
aS'actually her'
p590
aS'hi'
p591
aS'ith me it sucks being a nobody on musically but you are just amazing'
p592
aS'yeah thanks'
p593
aS'hi this is leah i m i watch ur music lys'
p594
aS'pretty good almost caught one of those in the wild'
p595
aS'ik cool'
p596
aS'ok'
p597
aS'it was amazing'
p598
aS'send vid saying hey julia'
p599
aS'u could have gotten it off the internet'
p600
aS'oh okay your so pretty btw'
p601
aS'okaay'
p602
aS'hey morgan can you follow us on musically softball for life and kaitlynnelizabeth'
p603
aS'really'
p604
aS'hello is this morgan'
p605
aS'i m such a big fan'
p606
aS'yes you are awesome'
p607
aS'can t do wat'
p608
aS'how s your day going'
p609
aS'ok'
p610
aS'good'
p611
aS'and good'
p612
aS'hi'
p613
aS'hi'
p614
aS'omg morgan i love you'
p615
aS'i m gianna'
p616
aS'hello'
p617
aS'what state do you live in'
p618
aS'good'
p619
ag23
aS'hi am ur fan'
p620
aS'good'
p621
aS'follow me and do a duet with me plz'
p622
aS'good'
p623
aS'sure'
p624
aS'ily so much'
p625
aS'hey love your musically so much'
p626
aS'ok thanks for telling me'
p627
aS'he'
p628
aS'yes'
p629
aS'good'
p630
aS'i m such a big fan'
p631
aS'i m a big fan from musically'
p632
aS'can you follow me back on musical ly'
p633
aS'yesss'
p634
aS'your such a role model to me and i hope that one day i can meet you your so pretty and seem super nice one of your biggest fans'
p635
aS'omg i love you'
p636
aS'hey your my inspiration it would mean the world it you respond right'
p637
aS'good'
p638
aS'hey i m following u on musical ly i just texted your other number and it said to text this number'
p639
aS'tbh your very pretty and goals'
p640
aS'sounds great'
p641
aS'good how s yours'
p642
aS'ya'
p643
aS'yes very but i have a real quick question'
p644
aS'wil u add me on sc'
p645
aS'sounds awesome your gorgeous'
p646
aS'this is dania my muscial ly lovebirds and i am a huge fan your so gorgeous im going in to th grade but i just love your muscial lys'
p647
aS'lmao'
p648
aS'yup'
p649
aS'omg you are so pretty and you are a great role model to me and i really love your musicallys and you re just the best'
p650
aS'hey omg you are so gorgeous it would mean so much if i got a text back maybe even a follow or a duet my user name is lyndsey kate'
p651
aS'good thxs'
p652
aS'will u pls bff me on musically its kylieveno'
p653
aS'okay'
p654
aS'good'
p655
aS'k good'
p656
aS'and thx u for taking the time to talk to me'
p657
aS'hey'
p658
aS'hi'
p659
aS'can u add me please'
p660
aS'good just been hanging out'
p661
aS'hey'
p662
aS'hey this would be so awesome if u texted back i love u u inspire me a lot i have u on notifications on musicly it would be a dream come true if u gave me a bff'
p663
aS'it was really good i made a tye dye cake and thank u for asking about my day'
p664
aS'hi are u awake'
p665
aS'you are so pretty'
p666
aS'okay what time is it where u r'
p667
aS'yeah that s cool thanks for replying'
p668
aS'good'
p669
aS'hey can u bff me alli elkins i love u'
p670
aS'what who is this'
p671
aS'yep sounds good'
p672
aS'cute'
p673
ag23
ag23
aS'is this morgan'
p674
aS'ya'
p675
aS'i didn t call u but ok'
p676
aS'alright everybody is freaking out in the comments so i just wanted to make sure'
p677
aS'yes i love you and ur so pretty'
p678
aS'how old are you'
p679
aS'oh that s cool and my day is good i am making stuffed shells'
p680
aS'please'
p681
aS'luckyyy'
p682
aS'facetime please u call me'
p683
aS'i m gonna go check'
p684
aS'hey'
p685
aS'yes but can i plz have a bff'
p686
aS'can we be freinds'
p687
aS'hello'
p688
aS'kk'
p689
aS'hi how are you'
p690
ag23
aS'yah cool'
p691
aS'your awesome'
p692
aS'sounds great'
p693
aS'whaz up'
p694
aS'yeah'
p695
aS'umm ur fake good bye'
p696
aS'hi'
p697
aS'hey makayla parker'
p698
aS'really wow i was just wondering because people keep saying you were hacked and that you gave out the wrong number'
p699
aS'ok'
p700
aS'who is this'
p701
aS'what your favorite color'
p702
aS'your so pretty'
p703
aS'ok yay'
p704
aS'good night'
p705
aS'hey'
p706
aS'good'
p707
aS'hi morgan'
p708
aS'yum'
p709
aS'hi morgan i m a huge fan and ilysm it would mean everything if you replied love you'
p710
aS'sounds great'
p711
aS'hey'
p712
ag23
aS'hiiiii'
p713
aS'people say u are a model'
p714
aS'good'
p715
aS'yeah'
p716
aS'yes please love you'
p717
aS'kk'
p718
aS'hiiii'
p719
aS'come on pleaseeeeeeee'
p720
aS'good how was yours ps that animal is so cute'
p721
aS'my day was really good'
p722
aS'you are so welcome'
p723
aS'hey'
p724
aS'is this u everyone is saying u r hacked'
p725
aS'hey can you follow me'
p726
aS'you'
p727
aS'cool'
p728
aS'love you morgan mytwin lol'
p729
aS'fake'
p730
aS'pretty good'
p731
aS'and my day was good it s my birthday'
p732
aS'hello'
p733
aS'hi i m a big fan of yours i got your number off of musically i would really like it if u bff me u don t have to if u don t want to'
p734
aS'cool thx'
p735
aS'good'
p736
aS'pretty hope you respond'
p737
aS'hey morgan'
p738
aS'ur so gorgeous'
p739
aS'my user is iluvtuttlez for instagram'
p740
aS'can you please try to answer me'
p741
aS'that would be great'
p742
aS'i m day was great and i went to starbucks and subway'
p743
aS'aww they are cute and mine was great hby'
p744
aS'you are so pretty'
p745
aS'ok'
p746
aS'text u later'
p747
ag23
ag23
aS'yes'
p748
aS'what was that for'
p749
aS'ok'
p750
aS'yep'
p751
aS'hi'
p752
aS'not much of a life for me'
p753
aS'okay'
p754
aS'can u make me ur bff'
p755
aS'awe good at disneyland'
p756
aS'hehe morgan'
p757
aS'yeah'
p758
aS'my muser name is rylee arnett'
p759
aS'ur so pretty'
p760
aS'what s good'
p761
aS'awsome'
p762
aS'hey is this morgan'
p763
aS'aw thats cute mine was good i saw some cute animals to'
p764
aS'omg thank you so much i love u'
p765
aS'what s your favorite drink at starbucks'
p766
aS'aw your my fav'
p767
aS'yup so what are you doing now'
p768
ag23
aS'hey i m kyra'
p769
aS'if this is really you then send me another picture'
p770
aS'how did you start off on musicly like did you stick with the songs or funnier ones if that makes any sense'
p771
aS'so wyd'
p772
aS'thxxxxxx'
p773
aS'i really love your videos'
p774
aS'yeah that s so awesome'
p775
aS'ok'
p776
aS'hi'
p777
aS'good'
p778
aS'yay'
p779
aS'good now that u sent this'
p780
aS'ily'
p781
aS'how are you'
p782
aS'aww what kind of animals my day was great how was yours'
p783
aS'can u follow me on mussxaly crazzycookie plz if u want'
p784
aS'hi is this morgan from musically i m your fan'
p785
aS'my day was good'
p786
aS'have u gone live before'
p787
aS'hi'
p788
aS'it was good'
p789
aS'aww'
p790
aS'hi is this morgan katherine from musicaly'
p791
aS'could u make me ur bff'
p792
aS'fake fake fake'
p793
aS'hey i love your musicals'
p794
aS'ya i m your number one fan'
p795
aS'hi'
p796
aS'that coffee u had look good'
p797
aS'hey'
p798
aS'good'
p799
aS'aw so cute and my day was good thankss'
p800
aS'hey'
p801
aS'did u wanna text ur fans'
p802
aS'yeah thanks'
p803
aS'yeah that s perfect'
p804
aS'it was great i danced for hours at my dance studio'
p805
aS'hey'
p806
aS'hi is this morgan kathrine can i get a bff or a follow'
p807
aS'hey'
p808
aS'good and aww did u get one'
p809
aS'duet on musically too mckenna eddyy'
p810
aS'what'
p811
aS'good wbu'
p812
aS'yeah how old are u'
p813
aS'catfished'
p814
aS'hey omg i m a huge fan is this really your number'
p815
aS'hi my name is timberley i m one of your followers on musically and your musicallys inspired me to do musicallys and your every beautiful'
p816
aS'hi'
p817
aS'okay'
p818
aS'u are so pretty do not listen it the haters have a great day'
p819
aS'hi'
p820
aS'why did i believe this this is a hacker'
p821
aS'hi'
p822
aS'heyy'
p823
aS'it s good i love it'
p824
aS'i adore you'
p825
aS'hi'
p826
aS'aww it s good it s my moms birthday'
p827
aS'hey morgan'
p828
aS'wyd'
p829
aS'so'
p830
aS'how are you'
p831
aS'your welcome and i am not one of those crazy fan girls sorry if u think i am'
p832
aS'omg is this really you'
p833
aS'good going to my ranch'
p834
aS'ok i know'
p835
aS'so u would be able to ft'
p836
ag23
aS'hey'
p837
aS'hey morgan i am a huge fan love your musical ly that you make'
p838
ag23
aS'pretty good i love ginny pigs'
p839
aS'good and it s so cute'
p840
aS'hello'
p841
aS'pretty good'
p842
aS'oh so cute my day was good'
p843
aS'hi i am a huge fan of yours'
p844
aS'plz follow me on musical ly'
p845
aS'hey'
p846
aS'alright'
p847
aS'yes'
p848
aS'and beautiful'
p849
aS'is this katherine'
p850
aS'btw me musical ly is princess t'
p851
aS'are u sure'
p852
aS'yea'
p853
aS'omg your so beautiful'
p854
aS'yes that s very cool'
p855
aS'really'
p856
aS'hi'
p857
aS'hi'
p858
aS'what r u studying'
p859
aS'yes'
p860
aS'i liked all of ur musicals'
p861
aS'hi'
p862
aS'hey'
p863
aS'youre welcome i love your musical lys'
p864
aS'hey morgan imma fan obviously but i was just wondering is'
p865
aS'it was okay how was yours'
p866
aS'ok'
p867
ag23
aS'how old are u'
p868
aS'can i call you'
p869
aS'can you bff me please'
p870
aS'pretty good'
p871
aS'hiii'
p872
aS'ok'
p873
aS'what grade r u in'
p874
aS'hi i m one of your fan i love you so much please message me back'
p875
aS'yummm'
p876
aS'can you call me'
p877
aS'good'
p878
aS'you are so pretty and awesome im a huge fan'
p879
aS'ur so pretty'
p880
aS'i didn t do anything today'
p881
aS'good'
p882
aS'have you ever thought about singing you seem like you d be great at it'
p883
aS'ok thx anyway'
p884
aS'great how was you day'
p885
aS'ok that sounds cool to me'
p886
aS'haha have you been getting a lot of messages'
p887
aS'morgan hi'
p888
aS'can you add me on musicly my name is rayne smalls'
p889
aS'yea i love you so much'
p890
aS'oh ok'
p891
aS'do you like tacos'
p892
aS'it was good i had cheer practice'
p893
aS'please'
p894
aS'aww and my day was good i m at the nail shop'
p895
aS'tht cute'
p896
aS'my day was good'
p897
aS'hey can i ask you something'
p898
aS'yea that sounds cool'
p899
aS'my day was good when are you going to have a meet and greet'
p900
aS'heyy'
p901
aS'hi i love you'
p902
aS'who'
p903
aS'are you sure'
p904
aS'my day was fine how was yours'
p905
aS'good thanks'
p906
aS'is this really you'
p907
aS'is this really you'
p908
aS'yah thx i think your amazing your so pretty'
p909
aS'do you think that you could shout me out on musically or do a duet with me it would mean so much'
p910
aS'omg hey morgan i love your musical lys so much'
p911
aS'what s up'
p912
aS'okay can you bff me my name is chloe'
p913
aS'hey ilysm'
p914
aS'and do you bff fans or follow them'
p915
aS'hey morgan'
p916
aS'cool im a hugeeeeeeee fan'
p917
aS'can i ask a question'
p918
aS'love you to have a great day hope to talk to u soon'
p919
aS'ok'
p920
aS'when i start musical ly i show it to my mom and i told her i want be like her and my mom say your never can be like her and if you can do pliz pliz a duet with me i can show it to my mom and told her she s wrong pliz pliz'
p921
aS'hi'
p922
aS'hi'
p923
aS'can u bff me plz'
p924
aS'omg is this morgan katharine'
p925
aS'good i am in orlando what are you holding'
p926
aS'yeah'
p927
aS'yay this is super cool have you texted a lot of fans'
p928
aS'i m so happy you responded'
p929
aS'please answer'
p930
aS'ya i believe in you fan'
p931
aS'mine was amazing'
p932
aS'i love your musicallys and you are super gorgeous i wish i could look like youu'
p933
aS'okay'
p934
aS'good'
p935
aS'what s going on'
p936
aS'heyy is this morgan'
p937
aS'yes'
p938
aS'good'
p939
aS'btw i ve liked all of your musical lys and it meant a lot when you accepted my follow request on your private account'
p940
aS'hey'
p941
aS'good'
p942
aS'hi i m a big fan of yours and i ve been watching your musicallys for a while i don t know if you ll ever see this but thank you for being who your are my musically is genna'
p943
aS'hi'
p944
aS'hey i love your musical lys they are amazing your also very pretty'
p945
aS'ok'
p946
aS'i like ur music lys'
p947
aS'hey'
p948
aS'good'
p949
aS'cool'
p950
aS'hello'
p951
aS'ur welcome'
p952
aS'oh i was thinking april'
p953
aS'yahh'
p954
aS'is this really u'
p955
aS'hey i love u and ur musicaly s'
p956
aS'why did you wanna leak your number to so many people'
p957
aS'it s was good'
p958
aS'great i went shopping today'
p959
aS'hii yea sounds cool'
p960
aS'this is weird but uhm hi'
p961
aS'i love you so much'
p962
aS'it would be amazing if you answered'
p963
aS'your really good at your musical lys i m inspired by like almost all of them'
p964
aS'so beautiful'
p965
aS'yeah'
p966
aS'oh my names ana by the way'
p967
aS'goodnight'
p968
aS'so is this your phone number'
p969
aS'hi is this katherine'
p970
aS'mine was good thank for asking'
p971
aS'go'
p972
aS'no shit'
p973
aS'ima bout to cry omg i m so happy right now'
p974
aS'hey katherine i really hope u reply'
p975
aS'yassss that s great'
p976
aS'hello'
p977
aS'hey is this morgan'
p978
aS'ilysm morgan'
p979
aS'good but that doesn t look like u'
p980
aS'omg you are texting me you are the best muser'
p981
aS'yes that would be so great'
p982
aS'good wbu'
p983
aS'ok'
p984
aS'younow'
p985
aS'just saying u look really pretty in your vids'
p986
aS'hi huge fan can we make a duet please'
p987
aS'good i went swimming'
p988
aS'ok hbu'
p989
aS'hello'
p990
aS'stop'
p991
aS'ok'
p992
aS'can i text with you right now'
p993
aS'anytime and thank you for sending me updates'
p994
aS'can u follow me or bff me'
p995
aS'hiya there you re so pretty and amazing and i love you'
p996
aS'hey morgan i am a huge fan love your musical ly that you make'
p997
aS'ok'
p998
aS'hi i love you sooooooooo much i can t even explain it in words u are sooo pretty and talented in so many ways'
p999
aS'it was good'
p1000
ag23
aS'ok'
p1001
aS'yes'
p1002
aS'your pretty'
p1003
aS'ok thanks'
p1004
aS'morgan'
p1005
aS'okay thanks'
p1006
aS'r u giving shout outs to the people that text u from musical ly or just for fun'
p1007
aS'good so glad you had a good day'
p1008
aS'hi'
p1009
aS'yea'
p1010
aS'hi i m a huge fan'
p1011
aS'ok'
p1012
aS'can you make a duet with me'
p1013
aS'you re so beautiful'
p1014
aS'that s cool'
p1015
aS'oh ok'
p1016
aS'ok great thanks'
p1017
aS'please answer it would mean the world to me your so pretty too'
p1018
aS'awesome'
p1019
aS'actually'
p1020
aS'hey'
p1021
aS'ur welcome'
p1022
aS'hey'
p1023
aS'lets get roight into the news exposed'
p1024
aS'prettu'
p1025
aS'btw i just want to say u are so pretty with makeup are with no makeup ur goals'
p1026
aS'who is this'
p1027
aS'yea and hey'
p1028
aS'bff me on musical ly plzzz'
p1029
aS'your literally so pretty'
p1030
aS'cool what kind of animals my day was good how about yours'
p1031
aS'good'
p1032
aS'awe that s cute and good thx how was yours'
p1033
aS'yes'
p1034
aS'my day was good'
p1035
aS'btw i ve liked all of your musical lys and it meant a lot when you accepted my follow request on your private account'
p1036
aS'who is this'
p1037
aS'hey can you go and check my musical lys out plz i love yours your my favorite muser your really pretty and awesome'
p1038
aS'oh ok'
p1039
aS'it was good and awh so cute'
p1040
aS'hey morgan you are such a inspiration to me and i love every single one of your musical lys it would make my night if you text back thanks so much love youu'
p1041
aS'how old are you btw i love you'
p1042
aS'hi oh my gosh i love you so much and you re musicallys'
p1043
aS'hey i m a fan'
p1044
aS'i love your musical lys'
p1045
aS'can you follow me'
p1046
aS'yay l m so happy'
p1047
aS'of course'
p1048
aS'good'
p1049
aS'good'
p1050
aS'so do you morgan luv ya too'
p1051
aS'don t you live right up the street from me'
p1052
aS'how old r you'
p1053
aS'yep'
p1054
aS'thank you soo much yiu jus made my night'
p1055
aS'hey'
p1056
aS'cool'
p1057
aS'sounds awesome'
p1058
aS'is it u fr omgs i am a fan of your and your so gorgeous'
p1059
aS'good'
p1060
aS'ight'
p1061
aS'ok'
p1062
aS'good what about you'
p1063
aS'good'
p1064
aS'np how old r u'
p1065
aS'hey'
p1066
aS'hi ilysm i m a fan of urs'
p1067
aS'hey is is this morgan if it is i love you so much'
p1068
aS'morgan idk if ull see this but ur one of my favourite musers and'
p1069
aS'can u go live on musical ly tmm when u get the chance to'
p1070
aS'good'
p1071
aS'hello'
p1072
aS'yess you answered back thank you i love you too thanks for texting me back your super pretty too'
p1073
aS'awe and it was good i had a question'
p1074
aS'no who tf is morgan'
p1075
aS'omg i cant belive this right now'
p1076
aS'can i ask u a question'
p1077
aS'good and u'
p1078
aS'hiiii is this morgan'
p1079
aS'who is this'
p1080
aS'hi'
p1081
aS'hi'
p1082
aS'hi'
p1083
aS'ya'
p1084
aS'omg i love u soo muchh'
p1085
aS'my account is happy kylie'
p1086
aS'megan'
p1087
aS'awww cute good'
p1088
aS'heyy'
p1089
aS'hey'
p1090
aS'sure'
p1091
aS'will you please follow me on instagram if you do im gonna cry i love you so much'
p1092
aS'good'
p1093
aS'is this really u'
p1094
aS'hey morgan my name is chloe you are so pretty and great at music ly you are so inspiring because you be your self in the videos i love you'
p1095
aS'hey'
p1096
aS'yes very'
p1097
aS'hey is this morgan'
p1098
aS'my day was awesome and how was yours that rat is sooooo cute'
p1099
aS'can you please follow me on musicly my username is ghapyy and also try gg'
p1100
aS'good hbu'
p1101
aS'good'
p1102
aS'this is so cool thanks so much'
p1103
aS'omg hi morgan your beautiful and i love you'
p1104
aS'can you do a duet with me plz'
p1105
aS'hi'
p1106
aS'hi'
p1107
aS'omg hi morgan'
p1108
aS'your pretty'
p1109
aS'you are so pretty and your musical ly s are awesomee'
p1110
aS'plz follow me and shoutout i love u and my username on musicaly is lyssa lou'
p1111
aS'is this morgan'
p1112
aS'hi i m a huge fan if this is morgankatherine'
p1113
aS'cuteeee my day want very good'
p1114
aS'hiii'
p1115
aS'yes thank you so much i love you so much'
p1116
aS'ok'
p1117
aS'hello'
p1118
aS'can u follow me on musically jordyn'
p1119
aS'hey'
p1120
aS'hey is this morgan'
p1121
aS'could we maybe facetime sometime'
p1122
aS'who is this'
p1123
aS'is this morgan katherine'
p1124
aS'can you follow me gymcutie'
p1125
aS'i saw'
p1126
aS'ok'
p1127
aS'what are you doing'
p1128
aS'what song'
p1129
aS'omg please text back you re awesome'
p1130
aS'sure ig'
p1131
aS'good'
p1132
aS'sounds great'
p1133
aS'is this actually morgan'
p1134
aS'hey'
p1135
aS'hi'
p1136
aS'wrong number'
p1137
aS'k'
p1138
aS'and my name is blake yes i am a girl can you check my musically page it s blake ec'
p1139
aS'yeah sounds cool can you follow me on musically'
p1140
aS'yes'
p1141
aS'that sounds really cool'
p1142
aS'hi morgan'
p1143
aS'yeah'
p1144
aS'hey'
p1145
aS'good'
p1146
aS'ok thanks'
p1147
aS'i m going to bed so ttyl'
p1148
aS'good'
p1149
aS'good how was yours'
p1150
aS'good and yours'
p1151
aS'hi'
p1152
aS'yessss of course thank you so much for answering my text'
p1153
aS'k'
p1154
aS'np idk what to talk about but i wanna talk to u'
p1155
aS'bff me and follow me on musically plz my use name is aryanna'
p1156
aS'heyy i m ur biggest fan ilysm and ur musical ly are goals'
p1157
aS'my day was awesome'
p1158
aS'ya you are a great muser'
p1159
aS'wassup morgan you are very good at musically s and good at your makeup and eyelashes pro you always be making some days idk why but you sound nice and i wish you get back at me but yah if you do u mad my dad ight'
p1160
aS'good kinda'
p1161
aS'i love you'
p1162
aS'good'
p1163
aS'of course'
p1164
aS'yeah'
p1165
aS'd d d d d d'
p1166
aS'heyy'
p1167
aS'ig bih'
p1168
aS'good'
p1169
aS'no problem i love your musicallys and you hair like it s just so pretty i like it'
p1170
aS'hi morgan katherine you are so pretty and i love your musical ly s so much can i have a shout out please thank you soooooo much'
p1171
aS'i like them was there one or two'
p1172
aS'aww it so cute and my day was good i got a new dog'
p1173
aS'hi i m one of ur followers off of musical ly my name is cassi'
p1174
aS'yes'
p1175
aS'yes omg i love you musically canwe talk'
p1176
aS'what are ya up to today'
p1177
aS'hi this is kayla your so pretty i have extensions like u and i don t know what people would think can you help me'
p1178
aS'good and awwe that s so cute'
p1179
aS'hi you are so pretty and i follow you on musically'
p1180
aS'omg yes i m crying so much right now your my inspiration'
p1181
aS'aww cutee my days good lol'
p1182
aS'hi'
p1183
aS'ok everyone in the comments is saying that this is hacked so do you think you can post a video saying everything to clarify'
p1184
aS'okay'
p1185
aS'good'
p1186
aS'heyy'
p1187
aS'good'
p1188
aS'hey i m a huge fan my name is saelin say lynn'
p1189
aS'what is this'
p1190
aS'for real'
p1191
aS'yes'
p1192
aS'ur my fav'
p1193
aS'ok'
p1194
aS'you are very welcome'
p1195
aS'cool mine was good'
p1196
aS'send me a pic of u so i know ur real'
p1197
aS'my day was good'
p1198
aS'ok'
p1199
aS'good you possibly follow me'
p1200
aS'hi katherine i m a big fan you re so pretty i was wondering is you can please bff me on musically i wanna do some duets with you so please can you please bff me lachikibabyyjenii please and thank you'
p1201
aS'show me a recent picture of right now'
p1202
aS'yeah this is prob fake'
p1203
aS'fun fun well i wish i can get a bff your my fave muser'
p1204
aS'omg i can t believe this'
p1205
aS'please'
p1206
aS'can u bff me on musical ly pls'
p1207
aS'good'
p1208
aS'okay'
p1209
aS'can you plz check out some of my musiclys and tell me what you think cause i m trying to get feature and be like you and babyariel'
p1210
aS'good'
p1211
aS'btw i m good'
p1212
aS'great how was yours and how cuteeee'
p1213
aS'omg hi'
p1214
aS'hi i think you are so kind for giving out your number like no one ever done that'
p1215
aS'it was good thx for asking what else did you do'
p1216
aS'i mean your a person and i m a person so i don t want to make it seem like i don t care what you have to say i just want to get to know you'
p1217
aS'and your welcome'
p1218
aS'okay'
p1219
aS'omg it s so cute and it was great what about you'
p1220
aS'sounds cool omg your so pretty'
p1221
aS'good haha went to the mall'
p1222
aS'lit'
p1223
aS'hi'
p1224
aS'of course by the way your gorgeous'
p1225
aS'good i made the cheer team'
p1226
aS'hi'
p1227
aS'ily so much'
p1228
aS'good awww'
p1229
aS'hi i love your musical lys'
p1230
aS'yep sounds great'
p1231
ag23
aS'im about to cry'
p1232
aS'are you going to go live at all this weekend on lively'
p1233
aS'did u post anything on ur snapchat story yet bc if u did i can t see it'
p1234
aS'good'
p1235
aS'hi'
p1236
aS'can you follow me on musically'
p1237
aS'omg your perfect'
p1238
aS'how old r u morgan'
p1239
aS'yes'
p1240
aS'i am doing good'
p1241
aS'it was good'
p1242
aS'what r u studying for'
p1243
aS'i didn t know what the number was when i texted it my friend did that on my phone so who are you or what do you do'
p1244
aS'my day was awesome thanks for asking'
p1245
aS'that s fine but is this a fake morgan'
p1246
aS'yes you are gorgeous'
p1247
aS'sounds great omg i can t believe u texted back'
p1248
aS'hi is this the muser'
p1249
aS'great how s yours'
p1250
aS'would you follow me'
p1251
aS'hi'
p1252
aS'pretty'
p1253
aS'good'
p1254
aS'hiii'
p1255
aS'this is so amazing i cant believe i am actually talking to you'
p1256
aS'hi'
p1257
aS'ur so pretty'
p1258
aS'good'
p1259
aS'yours truly perla'
p1260
aS'ilysm'
p1261
aS'good'
p1262
aS'anytime if you had to pick one muser who would be your favorite'
p1263
aS'good how was yours'
p1264
aS'can u follow me on musical ly'
p1265
aS'ya'
p1266
aS'it was good'
p1267
aS'you re welcome i love you so much i want to meet you really bad'
p1268
aS'good'
p1269
aS'what are you doing today'
p1270
ag23
aS'yea thanks so much for texting me back that means alot'
p1271
aS'yeah'
p1272
aS'i have a question who do u like loren gray or jacob sartorius'
p1273
aS'hi morgan ilysm i hope to meet u one day'
p1274
aS'my user name is tbh fabulous'
p1275
aS'is this really your phone number i haven t been following your for long but you ve got really pretty hair lol also you look really good without braces i m mea'
p1276
aS'is this morgan from musically if you are i love watching your videos you re so pretty your like one of mine inspiration i would love if you would bff me on musically if not it s totally cool'
p1277
aS'pretty good'
p1278
aS'ur the prettiest on music ly'
p1279
aS'how do you get so famous on music ly i try so much'
p1280
aS'aaaaawwww it s so cut my day was good'
p1281
aS'wyd'
p1282
aS'good how was your day'
p1283
aS'awe can i have a follow back today'
p1284
aS'lol yes it does'
p1285
aS'can you bff me oliviamorn i m friends with jackson kreicoch and it would be so cool if i could tell him about this'
p1286
aS'ok'
p1287
aS'i saw'
p1288
aS'good hbu'
p1289
aS'my day was ok was yours good'
p1290
aS'morgan'
p1291
aS'it was great thanks'
p1292
aS'ok'
p1293
aS'ok thx'
p1294
aS'i like ur music lys'
p1295
aS'can u say hi plz'
p1296
aS'wassup'
p1297
aS'hey'
p1298
aS'so how are you'
p1299
aS'awww mine was nice thank you'
p1300
aS'oh ok i get it now'
p1301
aS'omg'
p1302
aS'hey i m kaijuan shivers one of your friends'
p1303
aS'can you plz bff me in musically it s ok if you don t want to'
p1304
aS'cool good and yours'
p1305
aS'good'
p1306
aS'cool i meant'
p1307
aS'ok i figured i just checked your snapchat'
p1308
aS'yeah thank you'
p1309
aS'wyd'
p1310
aS'your gorgeous'
p1311
aS'can you bff me please'
p1312
aS'hi morgan i love you so much my musical ly is ryhort i m not asking you to follow me i just wanted u to know who i was by the way your teeth are perfect and so are u are you a model'
p1313
aS'do you follow fans on instagram if so can you follow me please'
p1314
aS'is that true'
p1315
aS'ok'
p1316
aS'good'
p1317
aS'can u say hi ashia'
p1318
aS'why do you keep saying that'
p1319
aS'it was good can u do me a favor'
p1320
aS'good what about yours'
p1321
aS'i love you so much'
p1322
aS'my username is kaitlyn morales'
p1323
aS'good'
p1324
aS'good'
p1325
aS'good'
p1326
aS'ohhh that s so cool well i just wanted to say that you re really pretty and i love you can you follow me on musically marcieee it would mean the world to me'
p1327
aS'cool'
p1328
aS'hi omg i love you so much u are so good at musically s'
p1329
aS'good'
p1330
aS'ur soo pretty'
p1331
ag23
aS'good'
p1332
aS'okay please look at my musically xx emmthegemm'
p1333
aS'cool'
p1334
aS'sure is this really you'
p1335
aS'hey and okay cool'
p1336
aS'hi omg ily'
p1337
aS'good morning morgan'
p1338
aS'yasss'
p1339
aS'nvm'
p1340
aS'very true'
p1341
aS'i m phone has no internet sorry i can watch it'
p1342
aS'yeah go for it'
p1343
aS'yeah that s sounds amazing thank you'
p1344
aS'good'
p1345
aS'your welcome so what are you doing'
p1346
aS'is this the right number'
p1347
aS'and that s not a photo of u rift then u can tell so if someone did u might need to get better at hacking'
p1348
aS'what do u want to be when ur older'
p1349
aS'morgan is this you'
p1350
aS'ok'
p1351
aS'can i ask u a question since your my fav muser'
p1352
aS'awe so cute and my day was great'
p1353
aS'sounds great'
p1354
aS'awesome can i have a shout out'
p1355
aS'can we be bffs on musically so we can duet together my musically is bruhhitsgraci'
p1356
aS'yes'
p1357
aS'you inspire me alot'
p1358
aS'ok'
p1359
ag23
aS'ok'
p1360
aS'hi'
p1361
aS'yeah shout out'
p1362
aS'hi'
p1363
aS'hi i m ur biggest ilysm'
p1364
aS'yes'
p1365
aS'yea omg i am crying'
p1366
aS'my day was great i got to video call my internet bestie'
p1367
aS'i m one of your biggest fans my musicly is princess rlny'
p1368
aS'oops sorry i forgot i saw it it was great'
p1369
aS'yes i really hope you respond it will make my dad your my favorite muser your so so pretty ily'
p1370
aS'why d you send me that picture'
p1371
aS'hi'
p1372
aS'can u pls come to florence south carolina before august'
p1373
aS'okay thank you'
p1374
aS'i m not sure if you will see this but morgan ilysm you are so gorgeous'
p1375
aS'my user is bxby syddd'
p1376
aS'it was preety good and thats cool'
p1377
aS'good thanks for asking'
p1378
aS'good'
p1379
aS'oh omg hi'
p1380
aS'by the way my name is taylor'
p1381
aS'u so pretty'
p1382
aS'your really good at musical ly'
p1383
aS'hey'
p1384
aS'awe my day good thx for asking'
p1385
aS'good'
p1386
aS'hi im a huge fan'
p1387
aS'who is this'
p1388
aS'good'
p1389
ag23
aS'cool'
p1390
aS'good thanks for asking'
p1391
aS'where do u live'
p1392
aS'haii'
p1393
aS'good'
p1394
aS'thank you so much'
p1395
aS'hey'
p1396
aS'yup'
p1397
aS'hey'
p1398
aS'so can we talk right now'
p1399
aS'ilysm'
p1400
aS'awww thanks is so cute and my day was so good'
p1401
aS'yeah'
p1402
aS'your welcom'
p1403
aS'awesome'
p1404
aS'cool i m a huge fan'
p1405
aS'ok'
p1406
aS'omg i love all your musicallys they are so good'
p1407
aS'it was good'
p1408
aS'hi i m such a big fan'
p1409
aS'yes'
p1410
aS'yeaaa'
p1411
aS'hey'
p1412
aS'hey i got a question'
p1413
aS'how old are you'
p1414
aS'np my name is darian i am one of your followers and i get inspired by you videos a lot you seem to always pick the right song and do great movements to them'
p1415
aS'lucky u got star bucks'
p1416
aS'i am a big fan of u on musica ly'
p1417
aS'your a goddess'
p1418
aS'ok'
p1419
aS'this is all really fake tho'
p1420
aS'yes i m i love you so much tbh your like goals'
p1421
aS'so could you please bff me or follow me it would honestly make me so happy i cried cause i have your number'
p1422
aS'is this really morgan'
p1423
aS'it was great'
p1424
aS'can we facetime'
p1425
aS'and np love you'
p1426
aS'you are my biggest idol'
p1427
aS'ok'
p1428
aS'morgan'
p1429
aS'hi'
p1430
aS'awe how cute i love animals and it was amazing thanks for asking'
p1431
aS'omg'
p1432
aS'hey morgan you re such an inspiration i love all of your musicallys my musically is paigethompson ilysm girlie'
p1433
aS'did you get hacked or is this really morgan'
p1434
aS'hi is this morgan'
p1435
aS'good'
p1436
aS'cool'
p1437
aS'hey'
p1438
aS'okay'
p1439
aS'hi'
p1440
aS'hey'
p1441
aS'awwe u should look at a bearded dragon i have one'
p1442
aS'ok well i can t talk to people i don t know so goodbye'
p1443
aS'plz ik you will answer later but can u make me best fan forever so i can do duets with you or u can with me'
p1444
aS'yea'
p1445
ag23
aS'can you follow me on musically'
p1446
aS'hey this is maddie no problem i love your musicallys so much that s sounds awesome thank you for answering'
p1447
aS'okay'
p1448
aS'hi'
p1449
aS'cool i m super jealous of how gorgeous you are like for real'
p1450
aS'hello'
p1451
aS'then follow me'
p1452
aS'hiiiiii'
p1453
aS'is this actually you'
p1454
aS'hiii'
p1455
aS'good night'
p1456
aS'my friend is not really sure though cause she experienced something like this'
p1457
aS'ok'
p1458
aS'yeah thank you'
p1459
aS'please answer'
p1460
aS'what you doin'
p1461
aS'yepp thx so much tbh this is really cool'
p1462
aS'that s so cool'
p1463
aS'good how bout u'
p1464
aS'can you follow me on musically that would be my biggest dream and it would make my day'
p1465
aS'ik'
p1466
aS'u told me that'
p1467
aS'good and so cute'
p1468
aS'it was really good sounds like you had fun'
p1469
aS'oh cool'
p1470
aS'it was good'
p1471
aS'heyyyy'
p1472
aS'okay well i m going to bed goodnight morgan am i allowed to text you tomorrow'
p1473
aS'yes that sound amazing i can t believe this is actually u'
p1474
aS'i love all of your musical lys'
p1475
aS'lol'
p1476
aS'umm who are u cause you ve been texting me'
p1477
aS'hello'
p1478
aS'good'
p1479
aS'hi morgan i love u'
p1480
aS'can u please follow me on musically anna swick ilyssssssm it would be an honor'
p1481
aS'on musically'
p1482
aS'good wbu'
p1483
aS'your fast to respond'
p1484
aS'love u'
p1485
aS'ya'
p1486
aS'is this morgan'
p1487
aS'can u do me a favor can u bff me on musical ly its roseytt'
p1488
aS'good'
p1489
aS'my username is myladove'
p1490
aS'will u follow me please so that i can duet with u'
p1491
aS'hey morgan'
p1492
aS'ok'
p1493
aS'omg hi'
p1494
aS'you are so are so perfect and pretty'
p1495
aS'yeah r u texting me or everybody right now'
p1496
aS'hi did you read this message'
p1497
aS'aww and good but i m sad'
p1498
aS'it was amazing'
p1499
aS'hi i am such a huge fan and i think your really beautiful and nice and i love ur musical lys'
p1500
aS'and i love your musically'
p1501
aS'hi morgan'
p1502
aS'b'
p1503
aS'how do i stop seeing these messages'
p1504
aS'ok love ya'
p1505
aS'so what s up'
p1506
aS'my'
p1507
aS'can you call me sometime'
p1508
aS'what kind'
p1509
aS'an update for what'
p1510
aS'hi'
p1511
aS'hello'
p1512
aS'sounds great'
p1513
aS'i m your biggest fan i love youu so much your so pretty'
p1514
aS'yeah'
p1515
aS'who is this'
p1516
ag23
aS'mine was good thanks for asking'
p1517
aS'yeah'
p1518
aS'so sweet and my day was good have fun'
p1519
aS'can you please'
p1520
aS'lucky and my day was fine'
p1521
aS'ilysm'
p1522
aS'hey'
p1523
aS'yea'
p1524
aS'ok i will check it out'
p1525
aS'nice makeup'
p1526
aS'hey'
p1527
aS'hi is this morgan'
p1528
aS'cool'
p1529
ag23
aS'morgan'
p1530
aS'hai'
p1531
aS'hey i m s fan can i have a shotout please and ur cute'
p1532
aS'hi'
p1533
aS'so can u bff me on musical ly only if u want u don t have to'
p1534
aS'can i get a bff or a follow please i love you so much'
p1535
aS'musically'
p1536
ag23
aS'want to facetime or call'
p1537
aS'heey can you plss bff me'
p1538
aS'idk what to say'
p1539
aS'omg is it really you'
p1540
aS'good'
p1541
aS'that looks screenshot'
p1542
aS'asf'
p1543
aS'can you write my name on a piece of paper and then take a picture of it with you next to it'
p1544
aS'oh okay hey'
p1545
aS'lol'
p1546
aS'hey'
p1547
aS'omg you are my inspiration ilysm and i look up to you you mean so much to me and it would mean the world to me if you answered ily'
p1548
aS'hi'
p1549
aS'hi'
p1550
aS'good'
p1551
aS'yea thx'
p1552
aS'yes'
p1553
aS'sup'
p1554
aS'did u like having braces'
p1555
aS'yea ilysm i m such a big fan'
p1556
aS'omg okay thanks so much'
p1557
aS'sounds awesome i can t wait'
p1558
aS'i understand if u don t want to talk to me'
p1559
aS'yes'
p1560
aS'is this fake or is it really you'
p1561
aS'is this morgan from musically'
p1562
aS'why would you ever give your phone number out i mean i love you and all but not the best idea i mean it s your decision so do what ever you please love you'
p1563
ag23
aS'omg i agree so much literally'
p1564
aS'hi'
p1565
aS'it was great i had soccer tryouts this morning'
p1566
aS'good u'
p1567
ag23
aS'i cant have coffee'
p1568
aS'how are you i hope it was great'
p1569
aS'she would not put out her number'
p1570
aS'i m a huge fan'
p1571
aS'good i have the same day'
p1572
aS'it was good'
p1573
ag23
aS'ahhhh so exited'
p1574
aS'good'
p1575
aS'wish we would friends one day and get to meet you in real person one day maybe when your and me'
p1576
aS'd can u add me on insta http jeennii'
p1577
aS'is this morgan'
p1578
aS'lol'
p1579
ag23
aS'hi morgan'
p1580
aS'i love you so much'
p1581
ag23
aS'i mean i guess'
p1582
aS'i love you so much'
p1583
aS'your my favorite muser tbh'
p1584
aS'omg i can t believe i m actually texting u but keep the good work'
p1585
aS'ok thx'
p1586
aS'good'
p1587
aS'talk later'
p1588
aS'hi i m mckenzie is this morgan from musicly'
p1589
aS'ok'
p1590
aS'my day was great'
p1591
aS'good'
p1592
aS'i think that ur are amazing pretty smart burr idyl and perfect'
p1593
aS'hii'
p1594
aS'yep'
p1595
aS'no starbucks lol'
p1596
aS'hey morgan when do you go on tour'
p1597
aS'heyy'
p1598
aS'my day was good'
p1599
aS'ok'
p1600
aS'you should post more musicallys of you with black hair'
p1601
aS'yeah totally cool'
p1602
aS'omg i meant good'
p1603
aS'that would be awesome i wanted to let u know that ur an amazing person presley'
p1604
aS'yes i can t believe you answered you are my favorite muster ilysm'
p1605
aS'hey oh my gosh'
p1606
aS'i am so happy'
p1607
aS'omg yeah and no problem'
p1608
aS'omg could you say hey kylee hendley or atleast please please follow me i love you so much you re my favorite muser'
p1609
aS'yea is this really you though'
p1610
aS'hi'
p1611
ag23
aS'would you marry me just because i m a huge fan and you slay'
p1612
aS'your welcome i love you so much'
p1613
aS'yes jk'
p1614
aS'ur the hacker'
p1615
aS'hi'
p1616
aS'yes'
p1617
aS'good with a friend i haven t seen in almost a year'
p1618
aS'aww a wonderful how about yours'
p1619
aS'hi i am your biggest fan i hope that you text back and i tried to call you but it said that it was an error so yeah i love you i hope we can be best friends'
p1620
aS'you re so perfect'
p1621
aS'and can u follow me on musically it ava'
p1622
aS'hey omg i love your musiclys'
p1623
aS'good and it s so cute'
p1624
aS'good'
p1625
aS'hey i m such a big fan of yours and i admire you and you are goals'
p1626
aS'good'
p1627
aS'omg morgan ilysm it would mean the world if you texted back'
p1628
aS'yep'
p1629
aS'great'
p1630
aS'this is absolutely nothing to do with you but can you stop sending me messages this is not your fault problem'
p1631
aS'plz'
p1632
aS'it was good'
p1633
aS'hi i saw it musical ly that u were texting fans i m a huge fan'
p1634
ag23
ag23
aS'totally thank you so much'
p1635
aS'aww that s so cute and good hbu'
p1636
aS'hi'
p1637
aS'omg please follow me on instagarm it musically'
p1638
aS'hi is this morgan'
p1639
aS'yes'
p1640
aS'i m'
p1641
aS'k'
p1642
aS'cool'
p1643
aS'oh'
p1644
aS'ok'
p1645
aS'oh alright thx'
p1646
aS'hey is this morgankatherine'
p1647
aS'my day was good'
p1648
aS'yea'
p1649
aS'yea'
p1650
aS'if it is ilysm and hope to meet u one day'
p1651
aS'omg'
p1652
aS'hi'
p1653
aS'good'
p1654
aS'you re so beautiful holy'
p1655
aS'good he s adorable do u have snapchat'
p1656
aS'yeah'
p1657
aS'are you the real morgan'
p1658
aS'and i just want to make sure are you the real morgan katherine'
p1659
aS'good'
p1660
aS'yes'
p1661
aS'hi morgan i just wanted to say that you re such an amazing and beautiful person i love you so much'
p1662
aS'your so pretty'
p1663
aS'awesome'
p1664
aS'ya'
p1665
aS'is this a joke'
p1666
aS'i love you too'
p1667
aS'can u add me on snapchat dankmaddii'
p1668
aS'hello'
p1669
aS'hello'
p1670
aS'can you do the duet for show it to my mom and told her she s wrong'
p1671
aS'omg i m your fan i cryinh'
p1672
aS'good i had camp today tho'
p1673
ag23
aS'im your biggest girl fan your musicallys are goals aff'
p1674
aS'my day was ok aww so cute are you getting any pets'
p1675
aS'good'
p1676
aS'yessss'
p1677
aS'r u hacked'
p1678
aS'yes'
p1679
aS'your hair'
p1680
aS'ok'
p1681
aS'hi i m a huge fan can u please add me on snapchat sophies'
p1682
aS'can i ask u a question'
p1683
aS'thanks'
p1684
aS'htx kylieee'
p1685
aS'yes'
p1686
aS'your amazing'
p1687
aS'hi i am one of fans this morgan'
p1688
aS'good'
p1689
aS'cause it would make my day and mean so much if you follow me'
p1690
aS'is there still other fans texting you'
p1691
aS'awe'
p1692
aS'it was good how about yours'
p1693
aS'okay is it real'
p1694
aS'cool'
p1695
aS'can we duet'
p1696
aS'hi i love your music lys they are great and you are very pretty'
p1697
aS'hey is this morgan'
p1698
aS'welcome'
p1699
aS'yes omg hi'
p1700
aS'good'
p1701
aS'hey'
p1702
aS'i m a big fan lol'
p1703
aS'yea'
p1704
aS'omg hey i m such a big fan i love you plz reply back'
p1705
aS'ur musicallys r awesome'
p1706
aS'i liked it'
p1707
aS'hi morgan i love u soooo much'
p1708
aS'hey is this morgan'
p1709
aS'my day was great how was yours your amazing and i love you'
p1710
ag23
aS'hey morgan'
p1711
aS'really how about yours'
p1712
aS'you re so pretty and it was good'
p1713
aS'great how was yours'
p1714
aS'um kkk'
p1715
aS'aww how adorable my day was amazing thanks for asking'
p1716
aS'hi'
p1717
aS'ok hello how are you omg'
p1718
aS'okay but can you follow me on insta and musical ly'
p1719
aS'heyyy'
p1720
aS'i like ur lip color'
p1721
aS'hi i love all ur musical lys'
p1722
aS'omg of course'
p1723
aS'yeeeeeesss'
p1724
aS'my day is very good just playing some b ball'
p1725
aS'ok i will watch it and like'
p1726
aS'btw i m taylor'
p1727
aS'hey when did u start musical ly'
p1728
aS'can you pls follow my musically or at least make a duet or like some of them pls my musically is amy'
p1729
aS'love you'
p1730
aS'ohhhh ok i m still like mind blown'
p1731
aS'ok thank'
p1732
aS'who is this'
p1733
aS'not trying to be creepy'
p1734
aS'so cute mine was good'
p1735
aS'hi'
p1736
aS'omg hey i love your musical lys'
p1737
aS'hey morgan i love you so much and i added you on snapchat you are so beautiful it isn t fair i love your makeup'
p1738
aS'hey'
p1739
aS'hi i m such a big fan'
p1740
aS'hiiiii'
p1741
aS'yup'
p1742
aS'yes'
p1743
aS'yup'
p1744
aS'this is so cool omg thanks so much for answering'
p1745
aS'hey is this morgan'
p1746
aS'wyd'
p1747
aS'is this really her'
p1748
aS'my day was good thanks for asking'
p1749
aS'hey can u follow me'
p1750
aS'sure does i love starbucks'
p1751
aS'and who are you trying to get a hold of'
p1752
aS'cool'
p1753
aS'im a fan'
p1754
aS'yeah'
p1755
aS'hey i was wondering could u follow me back on musical ly'
p1756
aS'hi'
p1757
aS'its ok if u dont no one likes me and i get bullied'
p1758
aS'is this really u'
p1759
aS'yea'
p1760
aS'yes'
p1761
aS'hi'
p1762
aS'can u follow me on musiclly pls my account is lys'
p1763
aS'wyd'
p1764
aS'cool'
p1765
aS'you are so pretty'
p1766
aS'huge fan'
p1767
aS'yay you answered but my day was good'
p1768
aS'oh and how old are you'
p1769
aS'good'
p1770
aS'hey'
p1771
aS'ok is this just technology thing or is this really you'
p1772
aS'i love you soo muchh'
p1773
aS'okay well i was wondering if we can do a duet in musically'
p1774
aS'hey'
p1775
aS'you are so pretty'
p1776
aS'hi'
p1777
aS'yeah sounds cool'
p1778
aS'sounds great pretty sure this is a bot but'
p1779
aS'you re sooo pretty'
p1780
aS'hey'
p1781
aS'good'
p1782
aS'yee'
p1783
aS'is this really you'
p1784
aS'good'
p1785
aS'good how was yours'
p1786
aS'and'
p1787
aS'omg i love you so much'
p1788
aS'u r amazing u r really pretty'
p1789
aS'it s going great'
p1790
aS'hey'
p1791
aS'hey lol'
p1792
aS'hi morgan'
p1793
aS'who are you'
p1794
aS'lol'
p1795
aS'everyone thinks you were hacked'
p1796
aS'can u txt in musically is the box there cuz it s not for me plz help'
p1797
aS'my day was good'
p1798
aS'are you sure i thought you had an i phone'
p1799
aS'hello'
p1800
aS'do you do calls'
p1801
aS'hey'
p1802
aS'morgan'
p1803
aS'love that drink'
p1804
aS'yesss'
p1805
aS'yes it sounds amazing'
p1806
aS'um never mind it s not working for some odd reason'
p1807
aS'hey'
p1808
aS'hi i m your biggest fan'
p1809
aS'hey'
p1810
aS'can you please bff me on music ly or spam'
p1811
aS'is this katherine'
p1812
aS'i think you are sooooo pretty'
p1813
aS'yes'
p1814
aS'ur really pretty'
p1815
aS'musical ly'
p1816
aS'omg hi i m such a big fan of yours on music ly'
p1817
aS'ok i have to go'
p1818
aS'ok'
p1819
aS'hey i am a fan from muscail ly'
p1820
aS'that look soo good'
p1821
aS'ilsym'
p1822
aS'can you now'
p1823
aS'i liked it'
p1824
aS'yes'
p1825
aS'omg yes that s fine with me but is this the real morgan sorry if this is weird but i just don t want to be texting a stranger'
p1826
aS'could we facetime sometime'
p1827
aS'and good'
p1828
aS'and your so pretty how do u do it'
p1829
aS'yesss'
p1830
aS'hi'
p1831
aS'hey is this actually real orrr'
p1832
aS'ok thanks i just want to make sure'
p1833
aS'yeahhh'
p1834
aS'hi can u call me thanx by the way this is mercedez'
p1835
aS'and my musically is valeria b'
p1836
aS'yeah it does'
p1837
aS'yes sounds cool'
p1838
aS'yep sounds good your musicallys rock'
p1839
aS'good and u'
p1840
aS'hi this is one of ur fans off musicly'
p1841
aS'that s amazing'
p1842
aS'it was good'
p1843
aS'my name is madison btw'
p1844
aS'good night i love you'
p1845
aS'hi'
p1846
aS'good how was yours'
p1847
aS'hey'
p1848
aS'that s cool'
p1849
aS'good but i know this isn t her'
p1850
aS'this is fake'
p1851
aS'sure'
p1852
aS'hi i m a big fan of yours and i ve been watching your musicallys for a while i don t know if you ll ever see this but thank you for being who your are my musically is genna'
p1853
aS'hi'
p1854
aS'i m from michigan'
p1855
ag23
aS'yes omg follow me amykristofferson'
p1856
aS'okay can i ask u some questions'
p1857
aS'this is me'
p1858
aS'btw luv you'
p1859
aS'good morning'
p1860
aS'good'
p1861
aS'good'
p1862
aS'hello'
p1863
aS'hi is this morgan katherine'
p1864
aS'damn'
p1865
aS'hi'
p1866
aS'yeah'
p1867
aS'hey'
p1868
aS'what s your fav song'
p1869
aS'who is this'
p1870
aS'no problem'
p1871
aS'if you can facetime please let me know and i ll call you'
p1872
aS'hey'
p1873
aS'you welcome oh its ok can you follow me on musically at pyg babyjordan and can we be best friends'
p1874
aS'yes'
p1875
aS'good'
p1876
aS'i live in fayetteville ar if u could go there for a meet and greet that would be awesome'
p1877
aS'good'
p1878
aS'yes you re so pretty and your musical lys are great'
p1879
aS'really good'
p1880
aS'hi i m a fan my name is sylah but what do you use to make you re hair long'
p1881
aS'awwww so cute my day was good'
p1882
aS'hey'
p1883
aS'i already saw them and they are amazing'
p1884
aS'good thanks for asking'
p1885
aS'okay thanks'
p1886
aS'can u bff me tho'
p1887
aS'good'
p1888
aS'hey i love you so much i am a fan of yours on musical ly'
p1889
aS'hi is this morgan'
p1890
aS'ok'
p1891
aS'yea'
p1892
aS'can you please follow me on musical ly princesssaubree'
p1893
aS'good'
p1894
aS'omg hiii'
p1895
aS'i shall talk to you tomorow'
p1896
aS'good'
p1897
aS'yeah that s cool'
p1898
aS'hello'
p1899
aS'ok'
p1900
aS'ilysm'
p1901
aS'ya there'
p1902
aS'mine was good you'
p1903
aS'yes yes yes'
p1904
aS'hello there'
p1905
aS'ok sorry'
p1906
aS'hi i am a fan'
p1907
aS'lexi j moore'
p1908
aS'yes'
p1909
aS'hi again'
p1910
aS'that looks good'
p1911
aS'wyd'
p1912
aS'yasss'
p1913
aS'plzzzzzz'
p1914
aS'i feel like this is a computer doing all this so'
p1915
aS'how is your phone hacked'
p1916
ag23
aS'my day was good i had a tumbling class and did my back handspring'
p1917
aS'can u do a duet with me on musical ly brii'
p1918
aS'but tmo'
p1919
aS'gmmmmm'
p1920
aS'hi'
p1921
aS'do u iike musically like'
p1922
aS'heyyy you re so gorgeous ilyy'
p1923
aS'who is this'
p1924
aS'it s was good i was helping out with vacation bible school'
p1925
aS'if'
p1926
aS'hay'
p1927
aS'hi'
p1928
aS'see that s why you are my idol'
p1929
aS'hey i love u how do you do your makeup and products do you use btw my name is rayne'
p1930
aS'it was good hbu'
p1931
aS'sup'
p1932
aS'good how was your day'
p1933
aS'good how was yours'
p1934
aS'hey'
p1935
aS'yes'
p1936
aS'block and delete'
p1937
aS'awww great how was yours'
p1938
aS'that looks so good'
p1939
aS'but i believe it'
p1940
aS'yeah'
p1941
aS'ok omg thanks so much i love u'
p1942
aS'hey omg i love your musiclys'
p1943
aS'good'
p1944
aS'wyd'
p1945
aS'your so gorgeous'
p1946
aS'ok'
p1947
aS'who is this'
p1948
aS'yea'
p1949
aS'can u give me a shoutout in kinda new to this'
p1950
aS'hi morgan i m one of your biggest fans on musical ly i love your videos and especially your makeup i hope that you write back to me cause that would be pretty awesome'
p1951
aS'hey'
p1952
aS'mine was good'
p1953
aS'can you say hi to me'
p1954
aS'is this morgan katherine off of musical ly'
p1955
aS'your so gorgeous'
p1956
aS'is it possible that i can text u tomorrow morgan katherine'
p1957
aS'good'
p1958
aS'good'
p1959
aS'hi morgan hope this is the right plz txt back my name is bren i live in louisiana i am lov ur musical lys ur sister is awsome so r u anyway thx o and plz follow me on musical ly i am dd a'
p1960
aS'omg yessss it does'
p1961
aS'is this really u please text me back please'
p1962
aS'good i got a hoverboard'
p1963
aS'hi'
p1964
aS'hello'
p1965
aS'good and awwwe they are cute'
p1966
aS'wyd'
p1967
aS'hey i am like one of your biggest fans i love you so much please bff me on musically'
p1968
aS'okay love'
p1969
aS'it was great'
p1970
aS'hey morgan i am such a big fan'
p1971
aS'thank you for responding it means so much to me you are so gorgeous and amazing'
p1972
aS'good i m going to a concert'
p1973
aS'ok'
p1974
aS'cool'
p1975
aS'heyyyyy'
p1976
aS'you don t have to but it would be cool'
p1977
aS'i m sorry everyone is hating on you proverbs a hateful person disguises himself with his speech and harbors deceit within when he speaks graciously don t believe him for there are seven abominations in his heart though his hatred is concealed by deception his evil will be revealed in the assembly you inspire me'
p1978
aS'heey'
p1979
aS'good'
p1980
aS'i saw it'
p1981
aS'good yours'
p1982
aS'okay'
p1983
aS'hey morgan'
p1984
aS'good yours'
p1985
aS'look good'
p1986
aS'it s really good'
p1987
aS'good how ab u'
p1988
aS'ok'
p1989
aS'good'
p1990
aS'fine thnxs for asking'
p1991
aS'good how was yours'
p1992
aS'hey'
p1993
aS'hey'
p1994
ag23
aS'luv u too ur musicallys are life btw'
p1995
aS'hi my name is brie ily ur musically'
p1996
aS'aw thanks love you to'
p1997
aS'replied ily'
p1998
aS'i think this is a great way to connect with your supporters'
p1999
aS'is that petco and my day was fine how about yours'
p2000
aS'good'
p2001
a.